ARM GAS  /tmp/ccYsMs1p.s 			page 1


   1              		.cpu cortex-m0plus
   2              		.fpu softvfp
   3              		.eabi_attribute 20, 1
   4              		.eabi_attribute 21, 1
   5              		.eabi_attribute 23, 3
   6              		.eabi_attribute 24, 1
   7              		.eabi_attribute 25, 1
   8              		.eabi_attribute 26, 1
   9              		.eabi_attribute 30, 1
  10              		.eabi_attribute 34, 0
  11              		.eabi_attribute 18, 4
  12              		.code	16
  13              		.file	"spi.c"
  14              		.text
  15              	.Ltext0:
  16              		.cfi_sections	.debug_frame
  17              		.section	.text.MX_SPI1_Init,"ax",%progbits
  18              		.align	2
  19              		.global	MX_SPI1_Init
  20              		.code	16
  21              		.thumb_func
  23              	MX_SPI1_Init:
  24              	.LFB34:
  25              		.file 1 "Src/spi.c"
   1:Src/spi.c     **** /**
   2:Src/spi.c     ****   ******************************************************************************
   3:Src/spi.c     ****   * File Name          : SPI.c
   4:Src/spi.c     ****   * Description        : This file provides code for the configuration
   5:Src/spi.c     ****   *                      of the SPI instances.
   6:Src/spi.c     ****   ******************************************************************************
   7:Src/spi.c     ****   * @attention
   8:Src/spi.c     ****   *
   9:Src/spi.c     ****   * <h2><center>&copy; Copyright (c) 2019 STMicroelectronics.
  10:Src/spi.c     ****   * All rights reserved.</center></h2>
  11:Src/spi.c     ****   *
  12:Src/spi.c     ****   * This software component is licensed by ST under BSD 3-Clause license,
  13:Src/spi.c     ****   * the "License"; You may not use this file except in compliance with the
  14:Src/spi.c     ****   * License. You may obtain a copy of the License at:
  15:Src/spi.c     ****   *                        opensource.org/licenses/BSD-3-Clause
  16:Src/spi.c     ****   *
  17:Src/spi.c     ****   ******************************************************************************
  18:Src/spi.c     ****   */
  19:Src/spi.c     **** 
  20:Src/spi.c     **** /* Includes ------------------------------------------------------------------*/
  21:Src/spi.c     **** #include "spi.h"
  22:Src/spi.c     **** #include "gpio.h"
  23:Src/spi.c     **** 
  24:Src/spi.c     **** SPI_HandleTypeDef hspi1;
  25:Src/spi.c     **** 
  26:Src/spi.c     **** /* SPI1 init function */
  27:Src/spi.c     **** void MX_SPI1_Init(void)
  28:Src/spi.c     **** {
  26              		.loc 1 28 0
  27              		.cfi_startproc
  28 0000 08B5     		push	{r3, lr}
  29              	.LCFI0:
  30              		.cfi_def_cfa_offset 8
ARM GAS  /tmp/ccYsMs1p.s 			page 2


  31              		.cfi_offset 3, -8
  32              		.cfi_offset 14, -4
  29:Src/spi.c     **** 
  30:Src/spi.c     ****   hspi1.Instance = SPI1;
  33              		.loc 1 30 0
  34 0002 0D48     		ldr	r0, .L3
  35 0004 0D4B     		ldr	r3, .L3+4
  36 0006 0360     		str	r3, [r0]
  31:Src/spi.c     ****   hspi1.Init.Mode = SPI_MODE_MASTER;
  37              		.loc 1 31 0
  38 0008 8223     		mov	r3, #130
  39 000a 5B00     		lsl	r3, r3, #1
  40 000c 4360     		str	r3, [r0, #4]
  32:Src/spi.c     ****   hspi1.Init.Direction = SPI_DIRECTION_2LINES;
  41              		.loc 1 32 0
  42 000e 0023     		mov	r3, #0
  43 0010 8360     		str	r3, [r0, #8]
  33:Src/spi.c     ****   hspi1.Init.DataSize = SPI_DATASIZE_8BIT;
  44              		.loc 1 33 0
  45 0012 C360     		str	r3, [r0, #12]
  34:Src/spi.c     ****   hspi1.Init.CLKPolarity = SPI_POLARITY_LOW;
  46              		.loc 1 34 0
  47 0014 0361     		str	r3, [r0, #16]
  35:Src/spi.c     ****   hspi1.Init.CLKPhase = SPI_PHASE_1EDGE;
  48              		.loc 1 35 0
  49 0016 4361     		str	r3, [r0, #20]
  36:Src/spi.c     ****   hspi1.Init.NSS = SPI_NSS_SOFT;
  50              		.loc 1 36 0
  51 0018 8022     		mov	r2, #128
  52 001a 9200     		lsl	r2, r2, #2
  53 001c 8261     		str	r2, [r0, #24]
  37:Src/spi.c     ****   hspi1.Init.BaudRatePrescaler = SPI_BAUDRATEPRESCALER_2;
  54              		.loc 1 37 0
  55 001e C361     		str	r3, [r0, #28]
  38:Src/spi.c     ****   hspi1.Init.FirstBit = SPI_FIRSTBIT_MSB;
  56              		.loc 1 38 0
  57 0020 0362     		str	r3, [r0, #32]
  39:Src/spi.c     ****   hspi1.Init.TIMode = SPI_TIMODE_DISABLE;
  58              		.loc 1 39 0
  59 0022 4362     		str	r3, [r0, #36]
  40:Src/spi.c     ****   hspi1.Init.CRCCalculation = SPI_CRCCALCULATION_DISABLE;
  60              		.loc 1 40 0
  61 0024 8362     		str	r3, [r0, #40]
  41:Src/spi.c     ****   hspi1.Init.CRCPolynomial = 7;
  62              		.loc 1 41 0
  63 0026 0733     		add	r3, r3, #7
  64 0028 C362     		str	r3, [r0, #44]
  42:Src/spi.c     ****   if (HAL_SPI_Init(&hspi1) != HAL_OK)
  65              		.loc 1 42 0
  66 002a FFF7FEFF 		bl	HAL_SPI_Init
  67              	.LVL0:
  68 002e 0028     		cmp	r0, #0
  69 0030 01D0     		beq	.L1
  43:Src/spi.c     ****   {
  44:Src/spi.c     ****     Error_Handler();
  70              		.loc 1 44 0
  71 0032 FFF7FEFF 		bl	Error_Handler
ARM GAS  /tmp/ccYsMs1p.s 			page 3


  72              	.LVL1:
  73              	.L1:
  45:Src/spi.c     ****   }
  46:Src/spi.c     **** 
  47:Src/spi.c     **** }
  74              		.loc 1 47 0
  75              		@ sp needed
  76 0036 08BD     		pop	{r3, pc}
  77              	.L4:
  78              		.align	2
  79              	.L3:
  80 0038 00000000 		.word	hspi1
  81 003c 00300140 		.word	1073819648
  82              		.cfi_endproc
  83              	.LFE34:
  85              		.section	.text.HAL_SPI_MspInit,"ax",%progbits
  86              		.align	2
  87              		.global	HAL_SPI_MspInit
  88              		.code	16
  89              		.thumb_func
  91              	HAL_SPI_MspInit:
  92              	.LFB35:
  48:Src/spi.c     **** 
  49:Src/spi.c     **** void HAL_SPI_MspInit(SPI_HandleTypeDef* spiHandle)
  50:Src/spi.c     **** {
  93              		.loc 1 50 0
  94              		.cfi_startproc
  95              	.LVL2:
  96 0000 00B5     		push	{lr}
  97              	.LCFI1:
  98              		.cfi_def_cfa_offset 4
  99              		.cfi_offset 14, -4
 100 0002 87B0     		sub	sp, sp, #28
 101              	.LCFI2:
 102              		.cfi_def_cfa_offset 32
  51:Src/spi.c     **** 
  52:Src/spi.c     ****   GPIO_InitTypeDef GPIO_InitStruct = {0};
 103              		.loc 1 52 0
 104 0004 0023     		mov	r3, #0
 105 0006 0193     		str	r3, [sp, #4]
 106 0008 0293     		str	r3, [sp, #8]
 107 000a 0393     		str	r3, [sp, #12]
 108 000c 0493     		str	r3, [sp, #16]
 109 000e 0593     		str	r3, [sp, #20]
  53:Src/spi.c     ****   if(spiHandle->Instance==SPI1)
 110              		.loc 1 53 0
 111 0010 0268     		ldr	r2, [r0]
 112 0012 0F4B     		ldr	r3, .L7
 113 0014 9A42     		cmp	r2, r3
 114 0016 18D1     		bne	.L5
  54:Src/spi.c     ****   {
  55:Src/spi.c     ****   /* USER CODE BEGIN SPI1_MspInit 0 */
  56:Src/spi.c     **** 
  57:Src/spi.c     ****   /* USER CODE END SPI1_MspInit 0 */
  58:Src/spi.c     ****     /* SPI1 clock enable */
  59:Src/spi.c     ****     __HAL_RCC_SPI1_CLK_ENABLE();
 115              		.loc 1 59 0
ARM GAS  /tmp/ccYsMs1p.s 			page 4


 116 0018 0E4B     		ldr	r3, .L7+4
 117 001a 5A6B     		ldr	r2, [r3, #52]
 118 001c 8021     		mov	r1, #128
 119 001e 4901     		lsl	r1, r1, #5
 120 0020 0A43     		orr	r2, r1
 121 0022 5A63     		str	r2, [r3, #52]
 122              	.LBB2:
  60:Src/spi.c     ****   
  61:Src/spi.c     ****     __HAL_RCC_GPIOA_CLK_ENABLE();
 123              		.loc 1 61 0
 124 0024 DA6A     		ldr	r2, [r3, #44]
 125 0026 0121     		mov	r1, #1
 126 0028 0A43     		orr	r2, r1
 127 002a DA62     		str	r2, [r3, #44]
 128 002c DB6A     		ldr	r3, [r3, #44]
 129 002e 0B40     		and	r3, r1
 130 0030 0093     		str	r3, [sp]
 131 0032 009B     		ldr	r3, [sp]
 132              	.LBE2:
  62:Src/spi.c     ****     /**SPI1 GPIO Configuration    
  63:Src/spi.c     ****     PA4     ------> SPI1_NSS
  64:Src/spi.c     ****     PA5     ------> SPI1_SCK
  65:Src/spi.c     ****     PA6     ------> SPI1_MISO
  66:Src/spi.c     ****     PA7     ------> SPI1_MOSI 
  67:Src/spi.c     ****     */
  68:Src/spi.c     ****     GPIO_InitStruct.Pin = GPIO_PIN_5|GPIO_PIN_6|GPIO_PIN_7;
 133              		.loc 1 68 0
 134 0034 E023     		mov	r3, #224
 135 0036 0193     		str	r3, [sp, #4]
  69:Src/spi.c     ****     GPIO_InitStruct.Mode = GPIO_MODE_AF_PP;
 136              		.loc 1 69 0
 137 0038 DE3B     		sub	r3, r3, #222
 138 003a 0293     		str	r3, [sp, #8]
  70:Src/spi.c     ****     GPIO_InitStruct.Pull = GPIO_NOPULL;
  71:Src/spi.c     ****     GPIO_InitStruct.Speed = GPIO_SPEED_FREQ_VERY_HIGH;
 139              		.loc 1 71 0
 140 003c 0133     		add	r3, r3, #1
 141 003e 0493     		str	r3, [sp, #16]
  72:Src/spi.c     ****     GPIO_InitStruct.Alternate = GPIO_AF0_SPI1;
  73:Src/spi.c     ****     HAL_GPIO_Init(GPIOA, &GPIO_InitStruct);
 142              		.loc 1 73 0
 143 0040 A020     		mov	r0, #160
 144              	.LVL3:
 145 0042 C005     		lsl	r0, r0, #23
 146 0044 01A9     		add	r1, sp, #4
 147 0046 FFF7FEFF 		bl	HAL_GPIO_Init
 148              	.LVL4:
 149              	.L5:
  74:Src/spi.c     **** 
  75:Src/spi.c     ****   /* USER CODE BEGIN SPI1_MspInit 1 */
  76:Src/spi.c     **** 
  77:Src/spi.c     ****   /* USER CODE END SPI1_MspInit 1 */
  78:Src/spi.c     ****   }
  79:Src/spi.c     **** }
 150              		.loc 1 79 0
 151 004a 07B0     		add	sp, sp, #28
 152              		@ sp needed
ARM GAS  /tmp/ccYsMs1p.s 			page 5


 153 004c 00BD     		pop	{pc}
 154              	.L8:
 155 004e C046     		.align	2
 156              	.L7:
 157 0050 00300140 		.word	1073819648
 158 0054 00100240 		.word	1073876992
 159              		.cfi_endproc
 160              	.LFE35:
 162              		.section	.text.HAL_SPI_MspDeInit,"ax",%progbits
 163              		.align	2
 164              		.global	HAL_SPI_MspDeInit
 165              		.code	16
 166              		.thumb_func
 168              	HAL_SPI_MspDeInit:
 169              	.LFB36:
  80:Src/spi.c     **** 
  81:Src/spi.c     **** void HAL_SPI_MspDeInit(SPI_HandleTypeDef* spiHandle)
  82:Src/spi.c     **** {
 170              		.loc 1 82 0
 171              		.cfi_startproc
 172              	.LVL5:
 173 0000 08B5     		push	{r3, lr}
 174              	.LCFI3:
 175              		.cfi_def_cfa_offset 8
 176              		.cfi_offset 3, -8
 177              		.cfi_offset 14, -4
  83:Src/spi.c     **** 
  84:Src/spi.c     ****   if(spiHandle->Instance==SPI1)
 178              		.loc 1 84 0
 179 0002 0268     		ldr	r2, [r0]
 180 0004 064B     		ldr	r3, .L11
 181 0006 9A42     		cmp	r2, r3
 182 0008 09D1     		bne	.L9
  85:Src/spi.c     ****   {
  86:Src/spi.c     ****   /* USER CODE BEGIN SPI1_MspDeInit 0 */
  87:Src/spi.c     **** 
  88:Src/spi.c     ****   /* USER CODE END SPI1_MspDeInit 0 */
  89:Src/spi.c     ****     /* Peripheral clock disable */
  90:Src/spi.c     ****     __HAL_RCC_SPI1_CLK_DISABLE();
 183              		.loc 1 90 0
 184 000a 064A     		ldr	r2, .L11+4
 185 000c 516B     		ldr	r1, [r2, #52]
 186 000e 064B     		ldr	r3, .L11+8
 187 0010 0B40     		and	r3, r1
 188 0012 5363     		str	r3, [r2, #52]
  91:Src/spi.c     ****   
  92:Src/spi.c     ****     /**SPI1 GPIO Configuration    
  93:Src/spi.c     ****     PA4     ------> SPI1_NSS
  94:Src/spi.c     ****     PA5     ------> SPI1_SCK
  95:Src/spi.c     ****     PA6     ------> SPI1_MISO
  96:Src/spi.c     ****     PA7     ------> SPI1_MOSI 
  97:Src/spi.c     ****     */
  98:Src/spi.c     ****     HAL_GPIO_DeInit(GPIOA, GPIO_PIN_4|GPIO_PIN_5|GPIO_PIN_6|GPIO_PIN_7);
 189              		.loc 1 98 0
 190 0014 A020     		mov	r0, #160
 191              	.LVL6:
 192 0016 C005     		lsl	r0, r0, #23
ARM GAS  /tmp/ccYsMs1p.s 			page 6


 193 0018 F021     		mov	r1, #240
 194 001a FFF7FEFF 		bl	HAL_GPIO_DeInit
 195              	.LVL7:
 196              	.L9:
  99:Src/spi.c     **** 
 100:Src/spi.c     ****   /* USER CODE BEGIN SPI1_MspDeInit 1 */
 101:Src/spi.c     **** 
 102:Src/spi.c     ****   /* USER CODE END SPI1_MspDeInit 1 */
 103:Src/spi.c     ****   }
 104:Src/spi.c     **** } 
 197              		.loc 1 104 0
 198              		@ sp needed
 199 001e 08BD     		pop	{r3, pc}
 200              	.L12:
 201              		.align	2
 202              	.L11:
 203 0020 00300140 		.word	1073819648
 204 0024 00100240 		.word	1073876992
 205 0028 FFEFFFFF 		.word	-4097
 206              		.cfi_endproc
 207              	.LFE36:
 209              		.comm	hspi1,88,4
 210              		.text
 211              	.Letext0:
 212              		.file 2 "/usr/include/newlib/machine/_default_types.h"
 213              		.file 3 "/usr/include/newlib/sys/_stdint.h"
 214              		.file 4 "Drivers/CMSIS/Device/ST/STM32L0xx/Include/stm32l071xx.h"
 215              		.file 5 "Drivers/STM32L0xx_HAL_Driver/Inc/stm32l0xx_hal_def.h"
 216              		.file 6 "Drivers/STM32L0xx_HAL_Driver/Inc/stm32l0xx_hal_gpio.h"
 217              		.file 7 "Drivers/STM32L0xx_HAL_Driver/Inc/stm32l0xx_hal_dma.h"
 218              		.file 8 "Drivers/STM32L0xx_HAL_Driver/Inc/stm32l0xx_hal_spi.h"
 219              		.file 9 "Inc/main.h"
ARM GAS  /tmp/ccYsMs1p.s 			page 7

