ARM GAS  /tmp/cclVeaaG.s 			page 1


   1              		.cpu cortex-m0plus
   2              		.fpu softvfp
   3              		.eabi_attribute 20, 1
   4              		.eabi_attribute 21, 1
   5              		.eabi_attribute 23, 3
   6              		.eabi_attribute 24, 1
   7              		.eabi_attribute 25, 1
   8              		.eabi_attribute 26, 1
   9              		.eabi_attribute 30, 1
  10              		.eabi_attribute 34, 0
  11              		.eabi_attribute 18, 4
  12              		.code	16
  13              		.file	"stm32l0xx_hal_uart_ex.c"
  14              		.text
  15              	.Ltext0:
  16              		.cfi_sections	.debug_frame
  17              		.section	.text.UARTEx_Wakeup_AddressConfig,"ax",%progbits
  18              		.align	2
  19              		.code	16
  20              		.thumb_func
  22              	UARTEx_Wakeup_AddressConfig:
  23              	.LFB44:
  24              		.file 1 "Drivers/STM32L0xx_HAL_Driver/Src/stm32l0xx_hal_uart_ex.c"
   1:Drivers/STM32L0xx_HAL_Driver/Src/stm32l0xx_hal_uart_ex.c **** /**
   2:Drivers/STM32L0xx_HAL_Driver/Src/stm32l0xx_hal_uart_ex.c ****   ******************************************************************************
   3:Drivers/STM32L0xx_HAL_Driver/Src/stm32l0xx_hal_uart_ex.c ****   * @file    stm32l0xx_hal_uart_ex.c
   4:Drivers/STM32L0xx_HAL_Driver/Src/stm32l0xx_hal_uart_ex.c ****   * @author  MCD Application Team
   5:Drivers/STM32L0xx_HAL_Driver/Src/stm32l0xx_hal_uart_ex.c ****   * @brief   Extended UART HAL module driver.
   6:Drivers/STM32L0xx_HAL_Driver/Src/stm32l0xx_hal_uart_ex.c ****   *          This file provides firmware functions to manage the following extended
   7:Drivers/STM32L0xx_HAL_Driver/Src/stm32l0xx_hal_uart_ex.c ****   *          functionalities of the Universal Asynchronous Receiver Transmitter Peripheral (UART).
   8:Drivers/STM32L0xx_HAL_Driver/Src/stm32l0xx_hal_uart_ex.c ****   *           + Initialization and de-initialization functions
   9:Drivers/STM32L0xx_HAL_Driver/Src/stm32l0xx_hal_uart_ex.c ****   *           + Peripheral Control functions
  10:Drivers/STM32L0xx_HAL_Driver/Src/stm32l0xx_hal_uart_ex.c ****   *
  11:Drivers/STM32L0xx_HAL_Driver/Src/stm32l0xx_hal_uart_ex.c ****   *
  12:Drivers/STM32L0xx_HAL_Driver/Src/stm32l0xx_hal_uart_ex.c ****   @verbatim
  13:Drivers/STM32L0xx_HAL_Driver/Src/stm32l0xx_hal_uart_ex.c ****   ==============================================================================
  14:Drivers/STM32L0xx_HAL_Driver/Src/stm32l0xx_hal_uart_ex.c ****                ##### UART peripheral extended features  #####
  15:Drivers/STM32L0xx_HAL_Driver/Src/stm32l0xx_hal_uart_ex.c ****   ==============================================================================
  16:Drivers/STM32L0xx_HAL_Driver/Src/stm32l0xx_hal_uart_ex.c **** 
  17:Drivers/STM32L0xx_HAL_Driver/Src/stm32l0xx_hal_uart_ex.c ****     (#) Declare a UART_HandleTypeDef handle structure.
  18:Drivers/STM32L0xx_HAL_Driver/Src/stm32l0xx_hal_uart_ex.c **** 
  19:Drivers/STM32L0xx_HAL_Driver/Src/stm32l0xx_hal_uart_ex.c ****     (#) For the UART RS485 Driver Enable mode, initialize the UART registers
  20:Drivers/STM32L0xx_HAL_Driver/Src/stm32l0xx_hal_uart_ex.c ****         by calling the HAL_RS485Ex_Init() API.
  21:Drivers/STM32L0xx_HAL_Driver/Src/stm32l0xx_hal_uart_ex.c **** 
  22:Drivers/STM32L0xx_HAL_Driver/Src/stm32l0xx_hal_uart_ex.c **** 
  23:Drivers/STM32L0xx_HAL_Driver/Src/stm32l0xx_hal_uart_ex.c ****   @endverbatim
  24:Drivers/STM32L0xx_HAL_Driver/Src/stm32l0xx_hal_uart_ex.c ****   ******************************************************************************
  25:Drivers/STM32L0xx_HAL_Driver/Src/stm32l0xx_hal_uart_ex.c ****   * @attention
  26:Drivers/STM32L0xx_HAL_Driver/Src/stm32l0xx_hal_uart_ex.c ****   *
  27:Drivers/STM32L0xx_HAL_Driver/Src/stm32l0xx_hal_uart_ex.c ****   * <h2><center>&copy; COPYRIGHT(c) 2016 STMicroelectronics</center></h2>
  28:Drivers/STM32L0xx_HAL_Driver/Src/stm32l0xx_hal_uart_ex.c ****   *
  29:Drivers/STM32L0xx_HAL_Driver/Src/stm32l0xx_hal_uart_ex.c ****   * Redistribution and use in source and binary forms, with or without modification,
  30:Drivers/STM32L0xx_HAL_Driver/Src/stm32l0xx_hal_uart_ex.c ****   * are permitted provided that the following conditions are met:
  31:Drivers/STM32L0xx_HAL_Driver/Src/stm32l0xx_hal_uart_ex.c ****   *   1. Redistributions of source code must retain the above copyright notice,
  32:Drivers/STM32L0xx_HAL_Driver/Src/stm32l0xx_hal_uart_ex.c ****   *      this list of conditions and the following disclaimer.
  33:Drivers/STM32L0xx_HAL_Driver/Src/stm32l0xx_hal_uart_ex.c ****   *   2. Redistributions in binary form must reproduce the above copyright notice,
  34:Drivers/STM32L0xx_HAL_Driver/Src/stm32l0xx_hal_uart_ex.c ****   *      this list of conditions and the following disclaimer in the documentation
ARM GAS  /tmp/cclVeaaG.s 			page 2


  35:Drivers/STM32L0xx_HAL_Driver/Src/stm32l0xx_hal_uart_ex.c ****   *      and/or other materials provided with the distribution.
  36:Drivers/STM32L0xx_HAL_Driver/Src/stm32l0xx_hal_uart_ex.c ****   *   3. Neither the name of STMicroelectronics nor the names of its contributors
  37:Drivers/STM32L0xx_HAL_Driver/Src/stm32l0xx_hal_uart_ex.c ****   *      may be used to endorse or promote products derived from this software
  38:Drivers/STM32L0xx_HAL_Driver/Src/stm32l0xx_hal_uart_ex.c ****   *      without specific prior written permission.
  39:Drivers/STM32L0xx_HAL_Driver/Src/stm32l0xx_hal_uart_ex.c ****   *
  40:Drivers/STM32L0xx_HAL_Driver/Src/stm32l0xx_hal_uart_ex.c ****   * THIS SOFTWARE IS PROVIDED BY THE COPYRIGHT HOLDERS AND CONTRIBUTORS "AS IS"
  41:Drivers/STM32L0xx_HAL_Driver/Src/stm32l0xx_hal_uart_ex.c ****   * AND ANY EXPRESS OR IMPLIED WARRANTIES, INCLUDING, BUT NOT LIMITED TO, THE
  42:Drivers/STM32L0xx_HAL_Driver/Src/stm32l0xx_hal_uart_ex.c ****   * IMPLIED WARRANTIES OF MERCHANTABILITY AND FITNESS FOR A PARTICULAR PURPOSE ARE
  43:Drivers/STM32L0xx_HAL_Driver/Src/stm32l0xx_hal_uart_ex.c ****   * DISCLAIMED. IN NO EVENT SHALL THE COPYRIGHT HOLDER OR CONTRIBUTORS BE LIABLE
  44:Drivers/STM32L0xx_HAL_Driver/Src/stm32l0xx_hal_uart_ex.c ****   * FOR ANY DIRECT, INDIRECT, INCIDENTAL, SPECIAL, EXEMPLARY, OR CONSEQUENTIAL
  45:Drivers/STM32L0xx_HAL_Driver/Src/stm32l0xx_hal_uart_ex.c ****   * DAMAGES (INCLUDING, BUT NOT LIMITED TO, PROCUREMENT OF SUBSTITUTE GOODS OR
  46:Drivers/STM32L0xx_HAL_Driver/Src/stm32l0xx_hal_uart_ex.c ****   * SERVICES; LOSS OF USE, DATA, OR PROFITS; OR BUSINESS INTERRUPTION) HOWEVER
  47:Drivers/STM32L0xx_HAL_Driver/Src/stm32l0xx_hal_uart_ex.c ****   * CAUSED AND ON ANY THEORY OF LIABILITY, WHETHER IN CONTRACT, STRICT LIABILITY,
  48:Drivers/STM32L0xx_HAL_Driver/Src/stm32l0xx_hal_uart_ex.c ****   * OR TORT (INCLUDING NEGLIGENCE OR OTHERWISE) ARISING IN ANY WAY OUT OF THE USE
  49:Drivers/STM32L0xx_HAL_Driver/Src/stm32l0xx_hal_uart_ex.c ****   * OF THIS SOFTWARE, EVEN IF ADVISED OF THE POSSIBILITY OF SUCH DAMAGE.
  50:Drivers/STM32L0xx_HAL_Driver/Src/stm32l0xx_hal_uart_ex.c ****   *
  51:Drivers/STM32L0xx_HAL_Driver/Src/stm32l0xx_hal_uart_ex.c ****   ******************************************************************************
  52:Drivers/STM32L0xx_HAL_Driver/Src/stm32l0xx_hal_uart_ex.c ****   */
  53:Drivers/STM32L0xx_HAL_Driver/Src/stm32l0xx_hal_uart_ex.c **** 
  54:Drivers/STM32L0xx_HAL_Driver/Src/stm32l0xx_hal_uart_ex.c **** /* Includes ------------------------------------------------------------------*/
  55:Drivers/STM32L0xx_HAL_Driver/Src/stm32l0xx_hal_uart_ex.c **** #include "stm32l0xx_hal.h"
  56:Drivers/STM32L0xx_HAL_Driver/Src/stm32l0xx_hal_uart_ex.c **** 
  57:Drivers/STM32L0xx_HAL_Driver/Src/stm32l0xx_hal_uart_ex.c **** /** @addtogroup STM32L0xx_HAL_Driver
  58:Drivers/STM32L0xx_HAL_Driver/Src/stm32l0xx_hal_uart_ex.c ****   * @{
  59:Drivers/STM32L0xx_HAL_Driver/Src/stm32l0xx_hal_uart_ex.c ****   */
  60:Drivers/STM32L0xx_HAL_Driver/Src/stm32l0xx_hal_uart_ex.c **** 
  61:Drivers/STM32L0xx_HAL_Driver/Src/stm32l0xx_hal_uart_ex.c **** /** @defgroup UARTEx UARTEx
  62:Drivers/STM32L0xx_HAL_Driver/Src/stm32l0xx_hal_uart_ex.c ****   * @brief UART Extended HAL module driver
  63:Drivers/STM32L0xx_HAL_Driver/Src/stm32l0xx_hal_uart_ex.c ****   * @{
  64:Drivers/STM32L0xx_HAL_Driver/Src/stm32l0xx_hal_uart_ex.c ****   */
  65:Drivers/STM32L0xx_HAL_Driver/Src/stm32l0xx_hal_uart_ex.c **** 
  66:Drivers/STM32L0xx_HAL_Driver/Src/stm32l0xx_hal_uart_ex.c **** #ifdef HAL_UART_MODULE_ENABLED
  67:Drivers/STM32L0xx_HAL_Driver/Src/stm32l0xx_hal_uart_ex.c **** 
  68:Drivers/STM32L0xx_HAL_Driver/Src/stm32l0xx_hal_uart_ex.c **** /* Private typedef -----------------------------------------------------------*/
  69:Drivers/STM32L0xx_HAL_Driver/Src/stm32l0xx_hal_uart_ex.c **** /* Private define ------------------------------------------------------------*/
  70:Drivers/STM32L0xx_HAL_Driver/Src/stm32l0xx_hal_uart_ex.c **** /* Private macros ------------------------------------------------------------*/
  71:Drivers/STM32L0xx_HAL_Driver/Src/stm32l0xx_hal_uart_ex.c **** /* Private variables ---------------------------------------------------------*/
  72:Drivers/STM32L0xx_HAL_Driver/Src/stm32l0xx_hal_uart_ex.c **** /* Private function prototypes -----------------------------------------------*/
  73:Drivers/STM32L0xx_HAL_Driver/Src/stm32l0xx_hal_uart_ex.c **** /** @defgroup UARTEx_Private_Functions UARTEx Private Functions
  74:Drivers/STM32L0xx_HAL_Driver/Src/stm32l0xx_hal_uart_ex.c ****   * @{
  75:Drivers/STM32L0xx_HAL_Driver/Src/stm32l0xx_hal_uart_ex.c ****   */
  76:Drivers/STM32L0xx_HAL_Driver/Src/stm32l0xx_hal_uart_ex.c **** static void UARTEx_Wakeup_AddressConfig(UART_HandleTypeDef *huart, UART_WakeUpTypeDef WakeUpSelecti
  77:Drivers/STM32L0xx_HAL_Driver/Src/stm32l0xx_hal_uart_ex.c **** /**
  78:Drivers/STM32L0xx_HAL_Driver/Src/stm32l0xx_hal_uart_ex.c ****   * @}
  79:Drivers/STM32L0xx_HAL_Driver/Src/stm32l0xx_hal_uart_ex.c ****   */
  80:Drivers/STM32L0xx_HAL_Driver/Src/stm32l0xx_hal_uart_ex.c **** 
  81:Drivers/STM32L0xx_HAL_Driver/Src/stm32l0xx_hal_uart_ex.c **** /* Exported functions --------------------------------------------------------*/
  82:Drivers/STM32L0xx_HAL_Driver/Src/stm32l0xx_hal_uart_ex.c **** 
  83:Drivers/STM32L0xx_HAL_Driver/Src/stm32l0xx_hal_uart_ex.c **** /** @defgroup UARTEx_Exported_Functions  UARTEx Exported Functions
  84:Drivers/STM32L0xx_HAL_Driver/Src/stm32l0xx_hal_uart_ex.c ****   * @{
  85:Drivers/STM32L0xx_HAL_Driver/Src/stm32l0xx_hal_uart_ex.c ****   */
  86:Drivers/STM32L0xx_HAL_Driver/Src/stm32l0xx_hal_uart_ex.c **** 
  87:Drivers/STM32L0xx_HAL_Driver/Src/stm32l0xx_hal_uart_ex.c **** /** @defgroup UARTEx_Exported_Functions_Group1 Initialization and de-initialization functions
  88:Drivers/STM32L0xx_HAL_Driver/Src/stm32l0xx_hal_uart_ex.c ****   * @brief    Extended Initialization and Configuration Functions
  89:Drivers/STM32L0xx_HAL_Driver/Src/stm32l0xx_hal_uart_ex.c ****   *
  90:Drivers/STM32L0xx_HAL_Driver/Src/stm32l0xx_hal_uart_ex.c **** @verbatim
  91:Drivers/STM32L0xx_HAL_Driver/Src/stm32l0xx_hal_uart_ex.c **** ===============================================================================
ARM GAS  /tmp/cclVeaaG.s 			page 3


  92:Drivers/STM32L0xx_HAL_Driver/Src/stm32l0xx_hal_uart_ex.c ****             ##### Initialization and Configuration functions #####
  93:Drivers/STM32L0xx_HAL_Driver/Src/stm32l0xx_hal_uart_ex.c ****  ===============================================================================
  94:Drivers/STM32L0xx_HAL_Driver/Src/stm32l0xx_hal_uart_ex.c ****     [..]
  95:Drivers/STM32L0xx_HAL_Driver/Src/stm32l0xx_hal_uart_ex.c ****     This subsection provides a set of functions allowing to initialize the USARTx or the UARTy
  96:Drivers/STM32L0xx_HAL_Driver/Src/stm32l0xx_hal_uart_ex.c ****     in asynchronous mode.
  97:Drivers/STM32L0xx_HAL_Driver/Src/stm32l0xx_hal_uart_ex.c ****       (+) For the asynchronous mode the parameters below can be configured:
  98:Drivers/STM32L0xx_HAL_Driver/Src/stm32l0xx_hal_uart_ex.c ****         (++) Baud Rate
  99:Drivers/STM32L0xx_HAL_Driver/Src/stm32l0xx_hal_uart_ex.c ****         (++) Word Length
 100:Drivers/STM32L0xx_HAL_Driver/Src/stm32l0xx_hal_uart_ex.c ****         (++) Stop Bit
 101:Drivers/STM32L0xx_HAL_Driver/Src/stm32l0xx_hal_uart_ex.c ****         (++) Parity: If the parity is enabled, then the MSB bit of the data written
 102:Drivers/STM32L0xx_HAL_Driver/Src/stm32l0xx_hal_uart_ex.c ****              in the data register is transmitted but is changed by the parity bit.
 103:Drivers/STM32L0xx_HAL_Driver/Src/stm32l0xx_hal_uart_ex.c ****         (++) Hardware flow control
 104:Drivers/STM32L0xx_HAL_Driver/Src/stm32l0xx_hal_uart_ex.c ****         (++) Receiver/transmitter modes
 105:Drivers/STM32L0xx_HAL_Driver/Src/stm32l0xx_hal_uart_ex.c ****         (++) Over Sampling Method
 106:Drivers/STM32L0xx_HAL_Driver/Src/stm32l0xx_hal_uart_ex.c ****         (++) One-Bit Sampling Method
 107:Drivers/STM32L0xx_HAL_Driver/Src/stm32l0xx_hal_uart_ex.c ****       (+) For the asynchronous mode, the following advanced features can be configured as well:
 108:Drivers/STM32L0xx_HAL_Driver/Src/stm32l0xx_hal_uart_ex.c ****         (++) TX and/or RX pin level inversion
 109:Drivers/STM32L0xx_HAL_Driver/Src/stm32l0xx_hal_uart_ex.c ****         (++) data logical level inversion
 110:Drivers/STM32L0xx_HAL_Driver/Src/stm32l0xx_hal_uart_ex.c ****         (++) RX and TX pins swap
 111:Drivers/STM32L0xx_HAL_Driver/Src/stm32l0xx_hal_uart_ex.c ****         (++) RX overrun detection disabling
 112:Drivers/STM32L0xx_HAL_Driver/Src/stm32l0xx_hal_uart_ex.c ****         (++) DMA disabling on RX error
 113:Drivers/STM32L0xx_HAL_Driver/Src/stm32l0xx_hal_uart_ex.c ****         (++) MSB first on communication line
 114:Drivers/STM32L0xx_HAL_Driver/Src/stm32l0xx_hal_uart_ex.c ****         (++) auto Baud rate detection
 115:Drivers/STM32L0xx_HAL_Driver/Src/stm32l0xx_hal_uart_ex.c ****     [..]
 116:Drivers/STM32L0xx_HAL_Driver/Src/stm32l0xx_hal_uart_ex.c ****     The HAL_RS485Ex_Init() API follows the UART RS485 mode configuration
 117:Drivers/STM32L0xx_HAL_Driver/Src/stm32l0xx_hal_uart_ex.c ****      procedures (details for the procedures are available in reference manual).
 118:Drivers/STM32L0xx_HAL_Driver/Src/stm32l0xx_hal_uart_ex.c **** 
 119:Drivers/STM32L0xx_HAL_Driver/Src/stm32l0xx_hal_uart_ex.c **** @endverbatim
 120:Drivers/STM32L0xx_HAL_Driver/Src/stm32l0xx_hal_uart_ex.c **** 
 121:Drivers/STM32L0xx_HAL_Driver/Src/stm32l0xx_hal_uart_ex.c ****   Depending on the frame length defined by the M1 and M0 bits (7-bit, 
 122:Drivers/STM32L0xx_HAL_Driver/Src/stm32l0xx_hal_uart_ex.c ****   8-bit or 9-bit), the possible UART formats are listed in the 
 123:Drivers/STM32L0xx_HAL_Driver/Src/stm32l0xx_hal_uart_ex.c ****   following table.
 124:Drivers/STM32L0xx_HAL_Driver/Src/stm32l0xx_hal_uart_ex.c ****   
 125:Drivers/STM32L0xx_HAL_Driver/Src/stm32l0xx_hal_uart_ex.c ****     Table 1. UART frame format.
 126:Drivers/STM32L0xx_HAL_Driver/Src/stm32l0xx_hal_uart_ex.c ****     +-----------------------------------------------------------------------+
 127:Drivers/STM32L0xx_HAL_Driver/Src/stm32l0xx_hal_uart_ex.c ****     |  M1 bit |  M0 bit |  PCE bit  |             UART frame                |
 128:Drivers/STM32L0xx_HAL_Driver/Src/stm32l0xx_hal_uart_ex.c ****     |---------|---------|-----------|---------------------------------------|
 129:Drivers/STM32L0xx_HAL_Driver/Src/stm32l0xx_hal_uart_ex.c ****     |    0    |    0    |    0      |    | SB |    8 bit data   | STB |     |
 130:Drivers/STM32L0xx_HAL_Driver/Src/stm32l0xx_hal_uart_ex.c ****     |---------|---------|-----------|---------------------------------------|
 131:Drivers/STM32L0xx_HAL_Driver/Src/stm32l0xx_hal_uart_ex.c ****     |    0    |    0    |    1      |    | SB | 7 bit data | PB | STB |     |
 132:Drivers/STM32L0xx_HAL_Driver/Src/stm32l0xx_hal_uart_ex.c ****     |---------|---------|-----------|---------------------------------------|
 133:Drivers/STM32L0xx_HAL_Driver/Src/stm32l0xx_hal_uart_ex.c ****     |    0    |    1    |    0      |    | SB |    9 bit data   | STB |     |
 134:Drivers/STM32L0xx_HAL_Driver/Src/stm32l0xx_hal_uart_ex.c ****     |---------|---------|-----------|---------------------------------------|
 135:Drivers/STM32L0xx_HAL_Driver/Src/stm32l0xx_hal_uart_ex.c ****     |    0    |    1    |    1      |    | SB | 8 bit data | PB | STB |     |
 136:Drivers/STM32L0xx_HAL_Driver/Src/stm32l0xx_hal_uart_ex.c ****     |---------|---------|-----------|---------------------------------------|
 137:Drivers/STM32L0xx_HAL_Driver/Src/stm32l0xx_hal_uart_ex.c ****     |    1    |    0    |    0      |    | SB |    7 bit data   | STB |     |
 138:Drivers/STM32L0xx_HAL_Driver/Src/stm32l0xx_hal_uart_ex.c ****     |---------|---------|-----------|---------------------------------------|
 139:Drivers/STM32L0xx_HAL_Driver/Src/stm32l0xx_hal_uart_ex.c ****     |    1    |    0    |    1      |    | SB | 6 bit data | PB | STB |     |
 140:Drivers/STM32L0xx_HAL_Driver/Src/stm32l0xx_hal_uart_ex.c ****     +-----------------------------------------------------------------------+
 141:Drivers/STM32L0xx_HAL_Driver/Src/stm32l0xx_hal_uart_ex.c **** 
 142:Drivers/STM32L0xx_HAL_Driver/Src/stm32l0xx_hal_uart_ex.c ****   * @{
 143:Drivers/STM32L0xx_HAL_Driver/Src/stm32l0xx_hal_uart_ex.c ****   */
 144:Drivers/STM32L0xx_HAL_Driver/Src/stm32l0xx_hal_uart_ex.c **** 
 145:Drivers/STM32L0xx_HAL_Driver/Src/stm32l0xx_hal_uart_ex.c **** /**
 146:Drivers/STM32L0xx_HAL_Driver/Src/stm32l0xx_hal_uart_ex.c ****   * @brief Initialize the RS485 Driver enable feature according to the specified
 147:Drivers/STM32L0xx_HAL_Driver/Src/stm32l0xx_hal_uart_ex.c ****   *         parameters in the UART_InitTypeDef and creates the associated handle.
 148:Drivers/STM32L0xx_HAL_Driver/Src/stm32l0xx_hal_uart_ex.c ****   * @param huart: UART handle.
ARM GAS  /tmp/cclVeaaG.s 			page 4


 149:Drivers/STM32L0xx_HAL_Driver/Src/stm32l0xx_hal_uart_ex.c ****   * @param Polarity: select the driver enable polarity.
 150:Drivers/STM32L0xx_HAL_Driver/Src/stm32l0xx_hal_uart_ex.c ****   *        This parameter can be one of the following values:
 151:Drivers/STM32L0xx_HAL_Driver/Src/stm32l0xx_hal_uart_ex.c ****   *          @arg @ref UART_DE_POLARITY_HIGH DE signal is active high
 152:Drivers/STM32L0xx_HAL_Driver/Src/stm32l0xx_hal_uart_ex.c ****   *          @arg @ref UART_DE_POLARITY_LOW  DE signal is active low
 153:Drivers/STM32L0xx_HAL_Driver/Src/stm32l0xx_hal_uart_ex.c ****   * @param AssertionTime: Driver Enable assertion time:
 154:Drivers/STM32L0xx_HAL_Driver/Src/stm32l0xx_hal_uart_ex.c ****   *                         5-bit value defining the time between the activation of the DE (Driver 
 155:Drivers/STM32L0xx_HAL_Driver/Src/stm32l0xx_hal_uart_ex.c ****   *                         signal and the beginning of the start bit. It is expressed in sample ti
 156:Drivers/STM32L0xx_HAL_Driver/Src/stm32l0xx_hal_uart_ex.c ****   *                         units (1/8 or 1/16 bit time, depending on the oversampling rate)
 157:Drivers/STM32L0xx_HAL_Driver/Src/stm32l0xx_hal_uart_ex.c ****   * @param DeassertionTime: Driver Enable deassertion time:
 158:Drivers/STM32L0xx_HAL_Driver/Src/stm32l0xx_hal_uart_ex.c ****   *                         5-bit value defining the time between the end of the last stop bit, in 
 159:Drivers/STM32L0xx_HAL_Driver/Src/stm32l0xx_hal_uart_ex.c ****   *                         transmitted message, and the de-activation of the DE (Driver Enable) si
 160:Drivers/STM32L0xx_HAL_Driver/Src/stm32l0xx_hal_uart_ex.c ****   *                         It is expressed in sample time units (1/8 or 1/16 bit time, depending o
 161:Drivers/STM32L0xx_HAL_Driver/Src/stm32l0xx_hal_uart_ex.c ****   *                         oversampling rate).
 162:Drivers/STM32L0xx_HAL_Driver/Src/stm32l0xx_hal_uart_ex.c ****   * @retval HAL status
 163:Drivers/STM32L0xx_HAL_Driver/Src/stm32l0xx_hal_uart_ex.c ****   */
 164:Drivers/STM32L0xx_HAL_Driver/Src/stm32l0xx_hal_uart_ex.c **** HAL_StatusTypeDef HAL_RS485Ex_Init(UART_HandleTypeDef *huart, uint32_t Polarity, uint32_t Assertion
 165:Drivers/STM32L0xx_HAL_Driver/Src/stm32l0xx_hal_uart_ex.c **** {
 166:Drivers/STM32L0xx_HAL_Driver/Src/stm32l0xx_hal_uart_ex.c ****   uint32_t temp = 0x0U;
 167:Drivers/STM32L0xx_HAL_Driver/Src/stm32l0xx_hal_uart_ex.c **** 
 168:Drivers/STM32L0xx_HAL_Driver/Src/stm32l0xx_hal_uart_ex.c ****   /* Check the UART handle allocation */
 169:Drivers/STM32L0xx_HAL_Driver/Src/stm32l0xx_hal_uart_ex.c ****   if(huart == NULL)
 170:Drivers/STM32L0xx_HAL_Driver/Src/stm32l0xx_hal_uart_ex.c ****   {
 171:Drivers/STM32L0xx_HAL_Driver/Src/stm32l0xx_hal_uart_ex.c ****     return HAL_ERROR;
 172:Drivers/STM32L0xx_HAL_Driver/Src/stm32l0xx_hal_uart_ex.c ****   }
 173:Drivers/STM32L0xx_HAL_Driver/Src/stm32l0xx_hal_uart_ex.c **** 
 174:Drivers/STM32L0xx_HAL_Driver/Src/stm32l0xx_hal_uart_ex.c ****   /* Check the Driver Enable polarity */
 175:Drivers/STM32L0xx_HAL_Driver/Src/stm32l0xx_hal_uart_ex.c ****   assert_param(IS_UART_DE_POLARITY(Polarity));
 176:Drivers/STM32L0xx_HAL_Driver/Src/stm32l0xx_hal_uart_ex.c **** 
 177:Drivers/STM32L0xx_HAL_Driver/Src/stm32l0xx_hal_uart_ex.c ****   /* Check the Driver Enable assertion time */
 178:Drivers/STM32L0xx_HAL_Driver/Src/stm32l0xx_hal_uart_ex.c ****   assert_param(IS_UART_ASSERTIONTIME(AssertionTime));
 179:Drivers/STM32L0xx_HAL_Driver/Src/stm32l0xx_hal_uart_ex.c **** 
 180:Drivers/STM32L0xx_HAL_Driver/Src/stm32l0xx_hal_uart_ex.c ****   /* Check the Driver Enable deassertion time */
 181:Drivers/STM32L0xx_HAL_Driver/Src/stm32l0xx_hal_uart_ex.c ****   assert_param(IS_UART_DEASSERTIONTIME(DeassertionTime));
 182:Drivers/STM32L0xx_HAL_Driver/Src/stm32l0xx_hal_uart_ex.c **** 
 183:Drivers/STM32L0xx_HAL_Driver/Src/stm32l0xx_hal_uart_ex.c ****   if(huart->gState == HAL_UART_STATE_RESET)
 184:Drivers/STM32L0xx_HAL_Driver/Src/stm32l0xx_hal_uart_ex.c ****   {
 185:Drivers/STM32L0xx_HAL_Driver/Src/stm32l0xx_hal_uart_ex.c ****     /* Allocate lock resource and initialize it */
 186:Drivers/STM32L0xx_HAL_Driver/Src/stm32l0xx_hal_uart_ex.c ****     huart->Lock = HAL_UNLOCKED;
 187:Drivers/STM32L0xx_HAL_Driver/Src/stm32l0xx_hal_uart_ex.c **** 
 188:Drivers/STM32L0xx_HAL_Driver/Src/stm32l0xx_hal_uart_ex.c ****     /* Init the low level hardware : GPIO, CLOCK, CORTEX */
 189:Drivers/STM32L0xx_HAL_Driver/Src/stm32l0xx_hal_uart_ex.c ****     HAL_UART_MspInit(huart);
 190:Drivers/STM32L0xx_HAL_Driver/Src/stm32l0xx_hal_uart_ex.c ****   }
 191:Drivers/STM32L0xx_HAL_Driver/Src/stm32l0xx_hal_uart_ex.c **** 
 192:Drivers/STM32L0xx_HAL_Driver/Src/stm32l0xx_hal_uart_ex.c ****   huart->gState = HAL_UART_STATE_BUSY;
 193:Drivers/STM32L0xx_HAL_Driver/Src/stm32l0xx_hal_uart_ex.c **** 
 194:Drivers/STM32L0xx_HAL_Driver/Src/stm32l0xx_hal_uart_ex.c ****   /* Disable the Peripheral */
 195:Drivers/STM32L0xx_HAL_Driver/Src/stm32l0xx_hal_uart_ex.c ****   __HAL_UART_DISABLE(huart);
 196:Drivers/STM32L0xx_HAL_Driver/Src/stm32l0xx_hal_uart_ex.c **** 
 197:Drivers/STM32L0xx_HAL_Driver/Src/stm32l0xx_hal_uart_ex.c ****   /* Set the UART Communication parameters */
 198:Drivers/STM32L0xx_HAL_Driver/Src/stm32l0xx_hal_uart_ex.c ****   if(huart->AdvancedInit.AdvFeatureInit != UART_ADVFEATURE_NO_INIT)
 199:Drivers/STM32L0xx_HAL_Driver/Src/stm32l0xx_hal_uart_ex.c ****   {
 200:Drivers/STM32L0xx_HAL_Driver/Src/stm32l0xx_hal_uart_ex.c ****     UART_AdvFeatureConfig(huart);
 201:Drivers/STM32L0xx_HAL_Driver/Src/stm32l0xx_hal_uart_ex.c ****   }
 202:Drivers/STM32L0xx_HAL_Driver/Src/stm32l0xx_hal_uart_ex.c **** 
 203:Drivers/STM32L0xx_HAL_Driver/Src/stm32l0xx_hal_uart_ex.c ****   if (UART_SetConfig(huart) == HAL_ERROR)
 204:Drivers/STM32L0xx_HAL_Driver/Src/stm32l0xx_hal_uart_ex.c ****   {
 205:Drivers/STM32L0xx_HAL_Driver/Src/stm32l0xx_hal_uart_ex.c ****     return HAL_ERROR;
ARM GAS  /tmp/cclVeaaG.s 			page 5


 206:Drivers/STM32L0xx_HAL_Driver/Src/stm32l0xx_hal_uart_ex.c ****   }
 207:Drivers/STM32L0xx_HAL_Driver/Src/stm32l0xx_hal_uart_ex.c **** 
 208:Drivers/STM32L0xx_HAL_Driver/Src/stm32l0xx_hal_uart_ex.c ****   /* Enable the Driver Enable mode by setting the DEM bit in the CR3 register */
 209:Drivers/STM32L0xx_HAL_Driver/Src/stm32l0xx_hal_uart_ex.c ****   SET_BIT(huart->Instance->CR3, USART_CR3_DEM);
 210:Drivers/STM32L0xx_HAL_Driver/Src/stm32l0xx_hal_uart_ex.c **** 
 211:Drivers/STM32L0xx_HAL_Driver/Src/stm32l0xx_hal_uart_ex.c ****   /* Set the Driver Enable polarity */
 212:Drivers/STM32L0xx_HAL_Driver/Src/stm32l0xx_hal_uart_ex.c ****   MODIFY_REG(huart->Instance->CR3, USART_CR3_DEP, Polarity);
 213:Drivers/STM32L0xx_HAL_Driver/Src/stm32l0xx_hal_uart_ex.c **** 
 214:Drivers/STM32L0xx_HAL_Driver/Src/stm32l0xx_hal_uart_ex.c ****   /* Set the Driver Enable assertion and deassertion times */
 215:Drivers/STM32L0xx_HAL_Driver/Src/stm32l0xx_hal_uart_ex.c ****   temp = (AssertionTime << UART_CR1_DEAT_ADDRESS_LSB_POS);
 216:Drivers/STM32L0xx_HAL_Driver/Src/stm32l0xx_hal_uart_ex.c ****   temp |= (DeassertionTime << UART_CR1_DEDT_ADDRESS_LSB_POS);
 217:Drivers/STM32L0xx_HAL_Driver/Src/stm32l0xx_hal_uart_ex.c ****   MODIFY_REG(huart->Instance->CR1, (USART_CR1_DEDT|USART_CR1_DEAT), temp);
 218:Drivers/STM32L0xx_HAL_Driver/Src/stm32l0xx_hal_uart_ex.c **** 
 219:Drivers/STM32L0xx_HAL_Driver/Src/stm32l0xx_hal_uart_ex.c ****   /* Enable the Peripheral */
 220:Drivers/STM32L0xx_HAL_Driver/Src/stm32l0xx_hal_uart_ex.c ****   __HAL_UART_ENABLE(huart);
 221:Drivers/STM32L0xx_HAL_Driver/Src/stm32l0xx_hal_uart_ex.c **** 
 222:Drivers/STM32L0xx_HAL_Driver/Src/stm32l0xx_hal_uart_ex.c ****   /* TEACK and/or REACK to check before moving huart->gState and huart->RxState to Ready */
 223:Drivers/STM32L0xx_HAL_Driver/Src/stm32l0xx_hal_uart_ex.c ****   return (UART_CheckIdleState(huart));
 224:Drivers/STM32L0xx_HAL_Driver/Src/stm32l0xx_hal_uart_ex.c **** }
 225:Drivers/STM32L0xx_HAL_Driver/Src/stm32l0xx_hal_uart_ex.c **** 
 226:Drivers/STM32L0xx_HAL_Driver/Src/stm32l0xx_hal_uart_ex.c **** 
 227:Drivers/STM32L0xx_HAL_Driver/Src/stm32l0xx_hal_uart_ex.c **** /**
 228:Drivers/STM32L0xx_HAL_Driver/Src/stm32l0xx_hal_uart_ex.c ****   * @}
 229:Drivers/STM32L0xx_HAL_Driver/Src/stm32l0xx_hal_uart_ex.c ****   */
 230:Drivers/STM32L0xx_HAL_Driver/Src/stm32l0xx_hal_uart_ex.c **** 
 231:Drivers/STM32L0xx_HAL_Driver/Src/stm32l0xx_hal_uart_ex.c **** /** @defgroup UARTEx_Exported_Functions_Group3 Peripheral Control functions
 232:Drivers/STM32L0xx_HAL_Driver/Src/stm32l0xx_hal_uart_ex.c ****   * @brief    Extended Peripheral Control functions
 233:Drivers/STM32L0xx_HAL_Driver/Src/stm32l0xx_hal_uart_ex.c ****  *
 234:Drivers/STM32L0xx_HAL_Driver/Src/stm32l0xx_hal_uart_ex.c **** @verbatim
 235:Drivers/STM32L0xx_HAL_Driver/Src/stm32l0xx_hal_uart_ex.c ****  ===============================================================================
 236:Drivers/STM32L0xx_HAL_Driver/Src/stm32l0xx_hal_uart_ex.c ****                       ##### Peripheral Control functions #####
 237:Drivers/STM32L0xx_HAL_Driver/Src/stm32l0xx_hal_uart_ex.c ****  ===============================================================================
 238:Drivers/STM32L0xx_HAL_Driver/Src/stm32l0xx_hal_uart_ex.c ****     [..] This section provides the following functions:
 239:Drivers/STM32L0xx_HAL_Driver/Src/stm32l0xx_hal_uart_ex.c ****      (+) HAL_UARTEx_EnableClockStopMode() API enables the UART clock (HSI or LSE only) during stop 
 240:Drivers/STM32L0xx_HAL_Driver/Src/stm32l0xx_hal_uart_ex.c ****      (+) HAL_UARTEx_DisableClockStopMode() API disables the above functionality
 241:Drivers/STM32L0xx_HAL_Driver/Src/stm32l0xx_hal_uart_ex.c ****      (+) HAL_MultiProcessorEx_AddressLength_Set() API optionally sets the UART node address
 242:Drivers/STM32L0xx_HAL_Driver/Src/stm32l0xx_hal_uart_ex.c ****          detection length to more than 4 bits for multiprocessor address mark wake up.
 243:Drivers/STM32L0xx_HAL_Driver/Src/stm32l0xx_hal_uart_ex.c ****      (+) HAL_UARTEx_StopModeWakeUpSourceConfig() API defines the wake-up from stop mode
 244:Drivers/STM32L0xx_HAL_Driver/Src/stm32l0xx_hal_uart_ex.c ****          trigger: address match, Start Bit detection or RXNE bit status.
 245:Drivers/STM32L0xx_HAL_Driver/Src/stm32l0xx_hal_uart_ex.c ****      (+) HAL_UARTEx_EnableStopMode() API enables the UART to wake up the MCU from stop mode
 246:Drivers/STM32L0xx_HAL_Driver/Src/stm32l0xx_hal_uart_ex.c ****      (+) HAL_UARTEx_DisableStopMode() API disables the above functionality
 247:Drivers/STM32L0xx_HAL_Driver/Src/stm32l0xx_hal_uart_ex.c ****      (+) HAL_UARTEx_EnableClockStopMode() API enables the UART HSI clock during stop mode   
 248:Drivers/STM32L0xx_HAL_Driver/Src/stm32l0xx_hal_uart_ex.c ****      (+) HAL_UARTEx_DisableClockStopMode() API disables the above functionality   
 249:Drivers/STM32L0xx_HAL_Driver/Src/stm32l0xx_hal_uart_ex.c ****      (+) HAL_UARTEx_WakeupCallback() called upon UART wakeup interrupt
 250:Drivers/STM32L0xx_HAL_Driver/Src/stm32l0xx_hal_uart_ex.c **** 
 251:Drivers/STM32L0xx_HAL_Driver/Src/stm32l0xx_hal_uart_ex.c **** 
 252:Drivers/STM32L0xx_HAL_Driver/Src/stm32l0xx_hal_uart_ex.c **** @endverbatim
 253:Drivers/STM32L0xx_HAL_Driver/Src/stm32l0xx_hal_uart_ex.c ****   * @{
 254:Drivers/STM32L0xx_HAL_Driver/Src/stm32l0xx_hal_uart_ex.c ****   */
 255:Drivers/STM32L0xx_HAL_Driver/Src/stm32l0xx_hal_uart_ex.c **** 
 256:Drivers/STM32L0xx_HAL_Driver/Src/stm32l0xx_hal_uart_ex.c **** 
 257:Drivers/STM32L0xx_HAL_Driver/Src/stm32l0xx_hal_uart_ex.c **** 
 258:Drivers/STM32L0xx_HAL_Driver/Src/stm32l0xx_hal_uart_ex.c **** 
 259:Drivers/STM32L0xx_HAL_Driver/Src/stm32l0xx_hal_uart_ex.c **** /**
 260:Drivers/STM32L0xx_HAL_Driver/Src/stm32l0xx_hal_uart_ex.c ****   * @brief By default in multiprocessor mode, when the wake up method is set
 261:Drivers/STM32L0xx_HAL_Driver/Src/stm32l0xx_hal_uart_ex.c ****   *        to address mark, the UART handles only 4-bit long addresses detection;
 262:Drivers/STM32L0xx_HAL_Driver/Src/stm32l0xx_hal_uart_ex.c ****   *        this API allows to enable longer addresses detection (6-, 7- or 8-bit
ARM GAS  /tmp/cclVeaaG.s 			page 6


 263:Drivers/STM32L0xx_HAL_Driver/Src/stm32l0xx_hal_uart_ex.c ****   *        long).
 264:Drivers/STM32L0xx_HAL_Driver/Src/stm32l0xx_hal_uart_ex.c ****   * @note  Addresses detection lengths are: 6-bit address detection in 7-bit data mode, 
 265:Drivers/STM32L0xx_HAL_Driver/Src/stm32l0xx_hal_uart_ex.c ****   *        7-bit address detection in 8-bit data mode, 8-bit address detection in 9-bit data mode.
 266:Drivers/STM32L0xx_HAL_Driver/Src/stm32l0xx_hal_uart_ex.c ****   * @param huart: UART handle.
 267:Drivers/STM32L0xx_HAL_Driver/Src/stm32l0xx_hal_uart_ex.c ****   * @param AddressLength: this parameter can be one of the following values:
 268:Drivers/STM32L0xx_HAL_Driver/Src/stm32l0xx_hal_uart_ex.c ****   *          @arg @ref UART_ADDRESS_DETECT_4B 4-bit long address
 269:Drivers/STM32L0xx_HAL_Driver/Src/stm32l0xx_hal_uart_ex.c ****   *          @arg @ref UART_ADDRESS_DETECT_7B 6-, 7- or 8-bit long address
 270:Drivers/STM32L0xx_HAL_Driver/Src/stm32l0xx_hal_uart_ex.c ****   * @retval HAL status
 271:Drivers/STM32L0xx_HAL_Driver/Src/stm32l0xx_hal_uart_ex.c ****   */
 272:Drivers/STM32L0xx_HAL_Driver/Src/stm32l0xx_hal_uart_ex.c **** HAL_StatusTypeDef HAL_MultiProcessorEx_AddressLength_Set(UART_HandleTypeDef *huart, uint32_t Addres
 273:Drivers/STM32L0xx_HAL_Driver/Src/stm32l0xx_hal_uart_ex.c **** {
 274:Drivers/STM32L0xx_HAL_Driver/Src/stm32l0xx_hal_uart_ex.c ****   /* Check the UART handle allocation */
 275:Drivers/STM32L0xx_HAL_Driver/Src/stm32l0xx_hal_uart_ex.c ****   if(huart == NULL)
 276:Drivers/STM32L0xx_HAL_Driver/Src/stm32l0xx_hal_uart_ex.c ****   {
 277:Drivers/STM32L0xx_HAL_Driver/Src/stm32l0xx_hal_uart_ex.c ****     return HAL_ERROR;
 278:Drivers/STM32L0xx_HAL_Driver/Src/stm32l0xx_hal_uart_ex.c ****   }
 279:Drivers/STM32L0xx_HAL_Driver/Src/stm32l0xx_hal_uart_ex.c **** 
 280:Drivers/STM32L0xx_HAL_Driver/Src/stm32l0xx_hal_uart_ex.c ****   /* Check the address length parameter */
 281:Drivers/STM32L0xx_HAL_Driver/Src/stm32l0xx_hal_uart_ex.c ****   assert_param(IS_UART_ADDRESSLENGTH_DETECT(AddressLength));
 282:Drivers/STM32L0xx_HAL_Driver/Src/stm32l0xx_hal_uart_ex.c **** 
 283:Drivers/STM32L0xx_HAL_Driver/Src/stm32l0xx_hal_uart_ex.c ****   huart->gState = HAL_UART_STATE_BUSY;
 284:Drivers/STM32L0xx_HAL_Driver/Src/stm32l0xx_hal_uart_ex.c **** 
 285:Drivers/STM32L0xx_HAL_Driver/Src/stm32l0xx_hal_uart_ex.c ****   /* Disable the Peripheral */
 286:Drivers/STM32L0xx_HAL_Driver/Src/stm32l0xx_hal_uart_ex.c ****   __HAL_UART_DISABLE(huart);
 287:Drivers/STM32L0xx_HAL_Driver/Src/stm32l0xx_hal_uart_ex.c **** 
 288:Drivers/STM32L0xx_HAL_Driver/Src/stm32l0xx_hal_uart_ex.c ****   /* Set the address length */
 289:Drivers/STM32L0xx_HAL_Driver/Src/stm32l0xx_hal_uart_ex.c ****   MODIFY_REG(huart->Instance->CR2, USART_CR2_ADDM7, AddressLength);
 290:Drivers/STM32L0xx_HAL_Driver/Src/stm32l0xx_hal_uart_ex.c **** 
 291:Drivers/STM32L0xx_HAL_Driver/Src/stm32l0xx_hal_uart_ex.c ****   /* Enable the Peripheral */
 292:Drivers/STM32L0xx_HAL_Driver/Src/stm32l0xx_hal_uart_ex.c ****   __HAL_UART_ENABLE(huart);
 293:Drivers/STM32L0xx_HAL_Driver/Src/stm32l0xx_hal_uart_ex.c **** 
 294:Drivers/STM32L0xx_HAL_Driver/Src/stm32l0xx_hal_uart_ex.c ****   /* TEACK and/or REACK to check before moving huart->gState and/or huart->RxState to Ready */
 295:Drivers/STM32L0xx_HAL_Driver/Src/stm32l0xx_hal_uart_ex.c ****   return (UART_CheckIdleState(huart));
 296:Drivers/STM32L0xx_HAL_Driver/Src/stm32l0xx_hal_uart_ex.c **** }
 297:Drivers/STM32L0xx_HAL_Driver/Src/stm32l0xx_hal_uart_ex.c **** 
 298:Drivers/STM32L0xx_HAL_Driver/Src/stm32l0xx_hal_uart_ex.c **** 
 299:Drivers/STM32L0xx_HAL_Driver/Src/stm32l0xx_hal_uart_ex.c **** /**
 300:Drivers/STM32L0xx_HAL_Driver/Src/stm32l0xx_hal_uart_ex.c ****   * @brief Set Wakeup from Stop mode interrupt flag selection.
 301:Drivers/STM32L0xx_HAL_Driver/Src/stm32l0xx_hal_uart_ex.c ****   * @param huart: UART handle.
 302:Drivers/STM32L0xx_HAL_Driver/Src/stm32l0xx_hal_uart_ex.c ****   * @param WakeUpSelection: address match, Start Bit detection or RXNE bit status.
 303:Drivers/STM32L0xx_HAL_Driver/Src/stm32l0xx_hal_uart_ex.c ****   * This parameter can be one of the following values:
 304:Drivers/STM32L0xx_HAL_Driver/Src/stm32l0xx_hal_uart_ex.c ****   *      @arg @ref UART_WAKEUP_ON_ADDRESS
 305:Drivers/STM32L0xx_HAL_Driver/Src/stm32l0xx_hal_uart_ex.c ****   *      @arg @ref UART_WAKEUP_ON_STARTBIT
 306:Drivers/STM32L0xx_HAL_Driver/Src/stm32l0xx_hal_uart_ex.c ****   *      @arg @ref UART_WAKEUP_ON_READDATA_NONEMPTY
 307:Drivers/STM32L0xx_HAL_Driver/Src/stm32l0xx_hal_uart_ex.c ****   * @retval HAL status
 308:Drivers/STM32L0xx_HAL_Driver/Src/stm32l0xx_hal_uart_ex.c ****   */
 309:Drivers/STM32L0xx_HAL_Driver/Src/stm32l0xx_hal_uart_ex.c **** HAL_StatusTypeDef HAL_UARTEx_StopModeWakeUpSourceConfig(UART_HandleTypeDef *huart, UART_WakeUpTypeD
 310:Drivers/STM32L0xx_HAL_Driver/Src/stm32l0xx_hal_uart_ex.c **** {
 311:Drivers/STM32L0xx_HAL_Driver/Src/stm32l0xx_hal_uart_ex.c ****   HAL_StatusTypeDef status = HAL_OK;
 312:Drivers/STM32L0xx_HAL_Driver/Src/stm32l0xx_hal_uart_ex.c ****   uint32_t tickstart = 0;
 313:Drivers/STM32L0xx_HAL_Driver/Src/stm32l0xx_hal_uart_ex.c **** 
 314:Drivers/STM32L0xx_HAL_Driver/Src/stm32l0xx_hal_uart_ex.c ****   /* check the wake-up from stop mode UART instance */
 315:Drivers/STM32L0xx_HAL_Driver/Src/stm32l0xx_hal_uart_ex.c ****   assert_param(IS_UART_WAKEUP_FROMSTOP_INSTANCE(huart->Instance));
 316:Drivers/STM32L0xx_HAL_Driver/Src/stm32l0xx_hal_uart_ex.c ****   /* check the wake-up selection parameter */
 317:Drivers/STM32L0xx_HAL_Driver/Src/stm32l0xx_hal_uart_ex.c ****   assert_param(IS_UART_WAKEUP_SELECTION(WakeUpSelection.WakeUpEvent));
 318:Drivers/STM32L0xx_HAL_Driver/Src/stm32l0xx_hal_uart_ex.c **** 
 319:Drivers/STM32L0xx_HAL_Driver/Src/stm32l0xx_hal_uart_ex.c ****   /* Process Locked */
ARM GAS  /tmp/cclVeaaG.s 			page 7


 320:Drivers/STM32L0xx_HAL_Driver/Src/stm32l0xx_hal_uart_ex.c ****   __HAL_LOCK(huart);
 321:Drivers/STM32L0xx_HAL_Driver/Src/stm32l0xx_hal_uart_ex.c **** 
 322:Drivers/STM32L0xx_HAL_Driver/Src/stm32l0xx_hal_uart_ex.c ****   huart->gState = HAL_UART_STATE_BUSY;
 323:Drivers/STM32L0xx_HAL_Driver/Src/stm32l0xx_hal_uart_ex.c **** 
 324:Drivers/STM32L0xx_HAL_Driver/Src/stm32l0xx_hal_uart_ex.c ****   /* Disable the Peripheral */
 325:Drivers/STM32L0xx_HAL_Driver/Src/stm32l0xx_hal_uart_ex.c ****   __HAL_UART_DISABLE(huart);
 326:Drivers/STM32L0xx_HAL_Driver/Src/stm32l0xx_hal_uart_ex.c **** 
 327:Drivers/STM32L0xx_HAL_Driver/Src/stm32l0xx_hal_uart_ex.c ****   /* Set the wake-up selection scheme */
 328:Drivers/STM32L0xx_HAL_Driver/Src/stm32l0xx_hal_uart_ex.c ****   MODIFY_REG(huart->Instance->CR3, USART_CR3_WUS, WakeUpSelection.WakeUpEvent);
 329:Drivers/STM32L0xx_HAL_Driver/Src/stm32l0xx_hal_uart_ex.c **** 
 330:Drivers/STM32L0xx_HAL_Driver/Src/stm32l0xx_hal_uart_ex.c ****   if (WakeUpSelection.WakeUpEvent == UART_WAKEUP_ON_ADDRESS)
 331:Drivers/STM32L0xx_HAL_Driver/Src/stm32l0xx_hal_uart_ex.c ****   {
 332:Drivers/STM32L0xx_HAL_Driver/Src/stm32l0xx_hal_uart_ex.c ****     UARTEx_Wakeup_AddressConfig(huart, WakeUpSelection);
 333:Drivers/STM32L0xx_HAL_Driver/Src/stm32l0xx_hal_uart_ex.c ****   }
 334:Drivers/STM32L0xx_HAL_Driver/Src/stm32l0xx_hal_uart_ex.c **** 
 335:Drivers/STM32L0xx_HAL_Driver/Src/stm32l0xx_hal_uart_ex.c ****   /* Enable the Peripheral */
 336:Drivers/STM32L0xx_HAL_Driver/Src/stm32l0xx_hal_uart_ex.c ****   __HAL_UART_ENABLE(huart);
 337:Drivers/STM32L0xx_HAL_Driver/Src/stm32l0xx_hal_uart_ex.c **** 
 338:Drivers/STM32L0xx_HAL_Driver/Src/stm32l0xx_hal_uart_ex.c ****   /* Init tickstart for timeout managment*/
 339:Drivers/STM32L0xx_HAL_Driver/Src/stm32l0xx_hal_uart_ex.c ****   tickstart = HAL_GetTick();
 340:Drivers/STM32L0xx_HAL_Driver/Src/stm32l0xx_hal_uart_ex.c **** 
 341:Drivers/STM32L0xx_HAL_Driver/Src/stm32l0xx_hal_uart_ex.c ****   /* Wait until REACK flag is set */
 342:Drivers/STM32L0xx_HAL_Driver/Src/stm32l0xx_hal_uart_ex.c ****   if(UART_WaitOnFlagUntilTimeout(huart, USART_ISR_REACK, RESET, tickstart, HAL_UART_TIMEOUT_VALUE) 
 343:Drivers/STM32L0xx_HAL_Driver/Src/stm32l0xx_hal_uart_ex.c ****   {
 344:Drivers/STM32L0xx_HAL_Driver/Src/stm32l0xx_hal_uart_ex.c ****     status = HAL_TIMEOUT;
 345:Drivers/STM32L0xx_HAL_Driver/Src/stm32l0xx_hal_uart_ex.c ****   }
 346:Drivers/STM32L0xx_HAL_Driver/Src/stm32l0xx_hal_uart_ex.c ****   else
 347:Drivers/STM32L0xx_HAL_Driver/Src/stm32l0xx_hal_uart_ex.c ****   {
 348:Drivers/STM32L0xx_HAL_Driver/Src/stm32l0xx_hal_uart_ex.c ****     /* Initialize the UART State */
 349:Drivers/STM32L0xx_HAL_Driver/Src/stm32l0xx_hal_uart_ex.c ****     huart->gState = HAL_UART_STATE_READY;
 350:Drivers/STM32L0xx_HAL_Driver/Src/stm32l0xx_hal_uart_ex.c ****   }
 351:Drivers/STM32L0xx_HAL_Driver/Src/stm32l0xx_hal_uart_ex.c **** 
 352:Drivers/STM32L0xx_HAL_Driver/Src/stm32l0xx_hal_uart_ex.c ****   /* Process Unlocked */
 353:Drivers/STM32L0xx_HAL_Driver/Src/stm32l0xx_hal_uart_ex.c ****   __HAL_UNLOCK(huart);
 354:Drivers/STM32L0xx_HAL_Driver/Src/stm32l0xx_hal_uart_ex.c **** 
 355:Drivers/STM32L0xx_HAL_Driver/Src/stm32l0xx_hal_uart_ex.c ****   return status;
 356:Drivers/STM32L0xx_HAL_Driver/Src/stm32l0xx_hal_uart_ex.c **** }
 357:Drivers/STM32L0xx_HAL_Driver/Src/stm32l0xx_hal_uart_ex.c **** 
 358:Drivers/STM32L0xx_HAL_Driver/Src/stm32l0xx_hal_uart_ex.c **** 
 359:Drivers/STM32L0xx_HAL_Driver/Src/stm32l0xx_hal_uart_ex.c **** /**
 360:Drivers/STM32L0xx_HAL_Driver/Src/stm32l0xx_hal_uart_ex.c ****   * @brief Enable UART Stop Mode.
 361:Drivers/STM32L0xx_HAL_Driver/Src/stm32l0xx_hal_uart_ex.c ****   * @note  The UART is able to wake up the MCU from Stop 1 mode as long as UART clock is HSI or LSE
 362:Drivers/STM32L0xx_HAL_Driver/Src/stm32l0xx_hal_uart_ex.c ****   * @param huart: UART handle.
 363:Drivers/STM32L0xx_HAL_Driver/Src/stm32l0xx_hal_uart_ex.c ****   * @retval HAL status
 364:Drivers/STM32L0xx_HAL_Driver/Src/stm32l0xx_hal_uart_ex.c ****   */
 365:Drivers/STM32L0xx_HAL_Driver/Src/stm32l0xx_hal_uart_ex.c **** HAL_StatusTypeDef HAL_UARTEx_EnableStopMode(UART_HandleTypeDef *huart)
 366:Drivers/STM32L0xx_HAL_Driver/Src/stm32l0xx_hal_uart_ex.c **** {
 367:Drivers/STM32L0xx_HAL_Driver/Src/stm32l0xx_hal_uart_ex.c ****   /* Process Locked */
 368:Drivers/STM32L0xx_HAL_Driver/Src/stm32l0xx_hal_uart_ex.c ****   __HAL_LOCK(huart);
 369:Drivers/STM32L0xx_HAL_Driver/Src/stm32l0xx_hal_uart_ex.c **** 
 370:Drivers/STM32L0xx_HAL_Driver/Src/stm32l0xx_hal_uart_ex.c ****   huart->gState = HAL_UART_STATE_BUSY;
 371:Drivers/STM32L0xx_HAL_Driver/Src/stm32l0xx_hal_uart_ex.c **** 
 372:Drivers/STM32L0xx_HAL_Driver/Src/stm32l0xx_hal_uart_ex.c ****   /* Set UESM bit */
 373:Drivers/STM32L0xx_HAL_Driver/Src/stm32l0xx_hal_uart_ex.c ****   SET_BIT(huart->Instance->CR1, USART_CR1_UESM);
 374:Drivers/STM32L0xx_HAL_Driver/Src/stm32l0xx_hal_uart_ex.c **** 
 375:Drivers/STM32L0xx_HAL_Driver/Src/stm32l0xx_hal_uart_ex.c ****   huart->gState = HAL_UART_STATE_READY;
 376:Drivers/STM32L0xx_HAL_Driver/Src/stm32l0xx_hal_uart_ex.c **** 
ARM GAS  /tmp/cclVeaaG.s 			page 8


 377:Drivers/STM32L0xx_HAL_Driver/Src/stm32l0xx_hal_uart_ex.c ****   /* Process Unlocked */
 378:Drivers/STM32L0xx_HAL_Driver/Src/stm32l0xx_hal_uart_ex.c ****   __HAL_UNLOCK(huart);
 379:Drivers/STM32L0xx_HAL_Driver/Src/stm32l0xx_hal_uart_ex.c **** 
 380:Drivers/STM32L0xx_HAL_Driver/Src/stm32l0xx_hal_uart_ex.c ****   return HAL_OK;
 381:Drivers/STM32L0xx_HAL_Driver/Src/stm32l0xx_hal_uart_ex.c **** }
 382:Drivers/STM32L0xx_HAL_Driver/Src/stm32l0xx_hal_uart_ex.c **** 
 383:Drivers/STM32L0xx_HAL_Driver/Src/stm32l0xx_hal_uart_ex.c **** /**
 384:Drivers/STM32L0xx_HAL_Driver/Src/stm32l0xx_hal_uart_ex.c ****   * @brief Disable UART Stop Mode.
 385:Drivers/STM32L0xx_HAL_Driver/Src/stm32l0xx_hal_uart_ex.c ****   * @param huart: UART handle.
 386:Drivers/STM32L0xx_HAL_Driver/Src/stm32l0xx_hal_uart_ex.c ****   * @retval HAL status
 387:Drivers/STM32L0xx_HAL_Driver/Src/stm32l0xx_hal_uart_ex.c ****   */
 388:Drivers/STM32L0xx_HAL_Driver/Src/stm32l0xx_hal_uart_ex.c **** HAL_StatusTypeDef HAL_UARTEx_DisableStopMode(UART_HandleTypeDef *huart)
 389:Drivers/STM32L0xx_HAL_Driver/Src/stm32l0xx_hal_uart_ex.c **** {
 390:Drivers/STM32L0xx_HAL_Driver/Src/stm32l0xx_hal_uart_ex.c ****   /* Process Locked */
 391:Drivers/STM32L0xx_HAL_Driver/Src/stm32l0xx_hal_uart_ex.c ****   __HAL_LOCK(huart);
 392:Drivers/STM32L0xx_HAL_Driver/Src/stm32l0xx_hal_uart_ex.c **** 
 393:Drivers/STM32L0xx_HAL_Driver/Src/stm32l0xx_hal_uart_ex.c ****   huart->gState = HAL_UART_STATE_BUSY;
 394:Drivers/STM32L0xx_HAL_Driver/Src/stm32l0xx_hal_uart_ex.c **** 
 395:Drivers/STM32L0xx_HAL_Driver/Src/stm32l0xx_hal_uart_ex.c ****   /* Clear UESM bit */
 396:Drivers/STM32L0xx_HAL_Driver/Src/stm32l0xx_hal_uart_ex.c ****   CLEAR_BIT(huart->Instance->CR1, USART_CR1_UESM);
 397:Drivers/STM32L0xx_HAL_Driver/Src/stm32l0xx_hal_uart_ex.c **** 
 398:Drivers/STM32L0xx_HAL_Driver/Src/stm32l0xx_hal_uart_ex.c ****   huart->gState = HAL_UART_STATE_READY;
 399:Drivers/STM32L0xx_HAL_Driver/Src/stm32l0xx_hal_uart_ex.c **** 
 400:Drivers/STM32L0xx_HAL_Driver/Src/stm32l0xx_hal_uart_ex.c ****   /* Process Unlocked */
 401:Drivers/STM32L0xx_HAL_Driver/Src/stm32l0xx_hal_uart_ex.c ****   __HAL_UNLOCK(huart);
 402:Drivers/STM32L0xx_HAL_Driver/Src/stm32l0xx_hal_uart_ex.c **** 
 403:Drivers/STM32L0xx_HAL_Driver/Src/stm32l0xx_hal_uart_ex.c ****   return HAL_OK;
 404:Drivers/STM32L0xx_HAL_Driver/Src/stm32l0xx_hal_uart_ex.c **** }
 405:Drivers/STM32L0xx_HAL_Driver/Src/stm32l0xx_hal_uart_ex.c **** 
 406:Drivers/STM32L0xx_HAL_Driver/Src/stm32l0xx_hal_uart_ex.c **** /**
 407:Drivers/STM32L0xx_HAL_Driver/Src/stm32l0xx_hal_uart_ex.c ****   * @brief Enable UART Clock in Stop Mode
 408:Drivers/STM32L0xx_HAL_Driver/Src/stm32l0xx_hal_uart_ex.c ****   * The UART keeps the Clock ON during Stop mode
 409:Drivers/STM32L0xx_HAL_Driver/Src/stm32l0xx_hal_uart_ex.c ****   * @param huart: uart handle
 410:Drivers/STM32L0xx_HAL_Driver/Src/stm32l0xx_hal_uart_ex.c ****   * @retval HAL status
 411:Drivers/STM32L0xx_HAL_Driver/Src/stm32l0xx_hal_uart_ex.c ****   */
 412:Drivers/STM32L0xx_HAL_Driver/Src/stm32l0xx_hal_uart_ex.c **** HAL_StatusTypeDef HAL_UARTEx_EnableClockStopMode(UART_HandleTypeDef *huart)
 413:Drivers/STM32L0xx_HAL_Driver/Src/stm32l0xx_hal_uart_ex.c **** {
 414:Drivers/STM32L0xx_HAL_Driver/Src/stm32l0xx_hal_uart_ex.c ****   /* Process Locked */
 415:Drivers/STM32L0xx_HAL_Driver/Src/stm32l0xx_hal_uart_ex.c ****   __HAL_LOCK(huart);
 416:Drivers/STM32L0xx_HAL_Driver/Src/stm32l0xx_hal_uart_ex.c ****   
 417:Drivers/STM32L0xx_HAL_Driver/Src/stm32l0xx_hal_uart_ex.c ****   huart->gState = HAL_UART_STATE_BUSY;
 418:Drivers/STM32L0xx_HAL_Driver/Src/stm32l0xx_hal_uart_ex.c ****   
 419:Drivers/STM32L0xx_HAL_Driver/Src/stm32l0xx_hal_uart_ex.c ****   /* Set UCESM bit */
 420:Drivers/STM32L0xx_HAL_Driver/Src/stm32l0xx_hal_uart_ex.c ****   SET_BIT(huart->Instance->CR3, USART_CR3_UCESM);
 421:Drivers/STM32L0xx_HAL_Driver/Src/stm32l0xx_hal_uart_ex.c ****   
 422:Drivers/STM32L0xx_HAL_Driver/Src/stm32l0xx_hal_uart_ex.c ****   huart->gState = HAL_UART_STATE_READY;
 423:Drivers/STM32L0xx_HAL_Driver/Src/stm32l0xx_hal_uart_ex.c ****   
 424:Drivers/STM32L0xx_HAL_Driver/Src/stm32l0xx_hal_uart_ex.c ****   /* Process Unlocked */
 425:Drivers/STM32L0xx_HAL_Driver/Src/stm32l0xx_hal_uart_ex.c ****   __HAL_UNLOCK(huart);
 426:Drivers/STM32L0xx_HAL_Driver/Src/stm32l0xx_hal_uart_ex.c ****   
 427:Drivers/STM32L0xx_HAL_Driver/Src/stm32l0xx_hal_uart_ex.c ****   return HAL_OK; 
 428:Drivers/STM32L0xx_HAL_Driver/Src/stm32l0xx_hal_uart_ex.c **** }
 429:Drivers/STM32L0xx_HAL_Driver/Src/stm32l0xx_hal_uart_ex.c **** 
 430:Drivers/STM32L0xx_HAL_Driver/Src/stm32l0xx_hal_uart_ex.c **** /**
 431:Drivers/STM32L0xx_HAL_Driver/Src/stm32l0xx_hal_uart_ex.c ****   * @brief Disable UART Clock in Stop Mode 
 432:Drivers/STM32L0xx_HAL_Driver/Src/stm32l0xx_hal_uart_ex.c ****   * @param huart: uart handle
 433:Drivers/STM32L0xx_HAL_Driver/Src/stm32l0xx_hal_uart_ex.c ****   * @retval HAL status
ARM GAS  /tmp/cclVeaaG.s 			page 9


 434:Drivers/STM32L0xx_HAL_Driver/Src/stm32l0xx_hal_uart_ex.c ****   */
 435:Drivers/STM32L0xx_HAL_Driver/Src/stm32l0xx_hal_uart_ex.c **** HAL_StatusTypeDef HAL_UARTEx_DisableClockStopMode(UART_HandleTypeDef *huart)
 436:Drivers/STM32L0xx_HAL_Driver/Src/stm32l0xx_hal_uart_ex.c **** {
 437:Drivers/STM32L0xx_HAL_Driver/Src/stm32l0xx_hal_uart_ex.c ****   /* Process Locked */
 438:Drivers/STM32L0xx_HAL_Driver/Src/stm32l0xx_hal_uart_ex.c ****   __HAL_LOCK(huart);
 439:Drivers/STM32L0xx_HAL_Driver/Src/stm32l0xx_hal_uart_ex.c **** 
 440:Drivers/STM32L0xx_HAL_Driver/Src/stm32l0xx_hal_uart_ex.c ****   huart->gState = HAL_UART_STATE_BUSY;
 441:Drivers/STM32L0xx_HAL_Driver/Src/stm32l0xx_hal_uart_ex.c **** 
 442:Drivers/STM32L0xx_HAL_Driver/Src/stm32l0xx_hal_uart_ex.c ****   /* Clear UCESM bit */
 443:Drivers/STM32L0xx_HAL_Driver/Src/stm32l0xx_hal_uart_ex.c ****   CLEAR_BIT(huart->Instance->CR3, USART_CR3_UCESM);
 444:Drivers/STM32L0xx_HAL_Driver/Src/stm32l0xx_hal_uart_ex.c **** 
 445:Drivers/STM32L0xx_HAL_Driver/Src/stm32l0xx_hal_uart_ex.c ****   huart->gState = HAL_UART_STATE_READY;
 446:Drivers/STM32L0xx_HAL_Driver/Src/stm32l0xx_hal_uart_ex.c **** 
 447:Drivers/STM32L0xx_HAL_Driver/Src/stm32l0xx_hal_uart_ex.c ****   /* Process Unlocked */
 448:Drivers/STM32L0xx_HAL_Driver/Src/stm32l0xx_hal_uart_ex.c ****   __HAL_UNLOCK(huart);
 449:Drivers/STM32L0xx_HAL_Driver/Src/stm32l0xx_hal_uart_ex.c **** 
 450:Drivers/STM32L0xx_HAL_Driver/Src/stm32l0xx_hal_uart_ex.c ****   return HAL_OK;
 451:Drivers/STM32L0xx_HAL_Driver/Src/stm32l0xx_hal_uart_ex.c **** }
 452:Drivers/STM32L0xx_HAL_Driver/Src/stm32l0xx_hal_uart_ex.c **** 
 453:Drivers/STM32L0xx_HAL_Driver/Src/stm32l0xx_hal_uart_ex.c **** /**
 454:Drivers/STM32L0xx_HAL_Driver/Src/stm32l0xx_hal_uart_ex.c ****   * @brief UART wakeup from Stop mode callback.
 455:Drivers/STM32L0xx_HAL_Driver/Src/stm32l0xx_hal_uart_ex.c ****   * @param huart: UART handle.
 456:Drivers/STM32L0xx_HAL_Driver/Src/stm32l0xx_hal_uart_ex.c ****   * @retval None
 457:Drivers/STM32L0xx_HAL_Driver/Src/stm32l0xx_hal_uart_ex.c ****   */
 458:Drivers/STM32L0xx_HAL_Driver/Src/stm32l0xx_hal_uart_ex.c **** __weak void HAL_UARTEx_WakeupCallback(UART_HandleTypeDef *huart)
 459:Drivers/STM32L0xx_HAL_Driver/Src/stm32l0xx_hal_uart_ex.c **** {
 460:Drivers/STM32L0xx_HAL_Driver/Src/stm32l0xx_hal_uart_ex.c ****   /* Prevent unused argument(s) compilation warning */
 461:Drivers/STM32L0xx_HAL_Driver/Src/stm32l0xx_hal_uart_ex.c ****   UNUSED(huart);
 462:Drivers/STM32L0xx_HAL_Driver/Src/stm32l0xx_hal_uart_ex.c **** 
 463:Drivers/STM32L0xx_HAL_Driver/Src/stm32l0xx_hal_uart_ex.c ****   /* NOTE : This function should not be modified, when the callback is needed,
 464:Drivers/STM32L0xx_HAL_Driver/Src/stm32l0xx_hal_uart_ex.c ****             the HAL_UARTEx_WakeupCallback can be implemented in the user file.
 465:Drivers/STM32L0xx_HAL_Driver/Src/stm32l0xx_hal_uart_ex.c ****    */
 466:Drivers/STM32L0xx_HAL_Driver/Src/stm32l0xx_hal_uart_ex.c **** }
 467:Drivers/STM32L0xx_HAL_Driver/Src/stm32l0xx_hal_uart_ex.c **** 
 468:Drivers/STM32L0xx_HAL_Driver/Src/stm32l0xx_hal_uart_ex.c **** /**
 469:Drivers/STM32L0xx_HAL_Driver/Src/stm32l0xx_hal_uart_ex.c ****   * @}
 470:Drivers/STM32L0xx_HAL_Driver/Src/stm32l0xx_hal_uart_ex.c ****   */
 471:Drivers/STM32L0xx_HAL_Driver/Src/stm32l0xx_hal_uart_ex.c **** 
 472:Drivers/STM32L0xx_HAL_Driver/Src/stm32l0xx_hal_uart_ex.c **** /**
 473:Drivers/STM32L0xx_HAL_Driver/Src/stm32l0xx_hal_uart_ex.c ****   * @}
 474:Drivers/STM32L0xx_HAL_Driver/Src/stm32l0xx_hal_uart_ex.c ****   */
 475:Drivers/STM32L0xx_HAL_Driver/Src/stm32l0xx_hal_uart_ex.c **** 
 476:Drivers/STM32L0xx_HAL_Driver/Src/stm32l0xx_hal_uart_ex.c **** /** @addtogroup UARTEx_Private_Functions
 477:Drivers/STM32L0xx_HAL_Driver/Src/stm32l0xx_hal_uart_ex.c ****   * @{
 478:Drivers/STM32L0xx_HAL_Driver/Src/stm32l0xx_hal_uart_ex.c ****   */
 479:Drivers/STM32L0xx_HAL_Driver/Src/stm32l0xx_hal_uart_ex.c **** 
 480:Drivers/STM32L0xx_HAL_Driver/Src/stm32l0xx_hal_uart_ex.c **** /**
 481:Drivers/STM32L0xx_HAL_Driver/Src/stm32l0xx_hal_uart_ex.c ****   * @brief Initialize the UART wake-up from stop mode parameters when triggered by address detectio
 482:Drivers/STM32L0xx_HAL_Driver/Src/stm32l0xx_hal_uart_ex.c ****   * @param huart: UART handle.
 483:Drivers/STM32L0xx_HAL_Driver/Src/stm32l0xx_hal_uart_ex.c ****   * @param WakeUpSelection: UART wake up from stop mode parameters.
 484:Drivers/STM32L0xx_HAL_Driver/Src/stm32l0xx_hal_uart_ex.c ****   * @retval None
 485:Drivers/STM32L0xx_HAL_Driver/Src/stm32l0xx_hal_uart_ex.c ****   */
 486:Drivers/STM32L0xx_HAL_Driver/Src/stm32l0xx_hal_uart_ex.c **** static void UARTEx_Wakeup_AddressConfig(UART_HandleTypeDef *huart, UART_WakeUpTypeDef WakeUpSelecti
 487:Drivers/STM32L0xx_HAL_Driver/Src/stm32l0xx_hal_uart_ex.c **** {
  25              		.loc 1 487 0
  26              		.cfi_startproc
  27              	.LVL0:
ARM GAS  /tmp/cclVeaaG.s 			page 10


  28 0000 82B0     		sub	sp, sp, #8
  29              	.LCFI0:
  30              		.cfi_def_cfa_offset 8
  31 0002 0091     		str	r1, [sp]
  32 0004 0192     		str	r2, [sp, #4]
 488:Drivers/STM32L0xx_HAL_Driver/Src/stm32l0xx_hal_uart_ex.c ****   assert_param(IS_UART_ADDRESSLENGTH_DETECT(WakeUpSelection.AddressLength));
 489:Drivers/STM32L0xx_HAL_Driver/Src/stm32l0xx_hal_uart_ex.c ****   if(WakeUpSelection.AddressLength == UART_ADDRESS_DETECT_4B)
 490:Drivers/STM32L0xx_HAL_Driver/Src/stm32l0xx_hal_uart_ex.c ****   {
 491:Drivers/STM32L0xx_HAL_Driver/Src/stm32l0xx_hal_uart_ex.c ****     assert_param(IS_UART_4B_ADDRESS(WakeUpSelection.Address));
 492:Drivers/STM32L0xx_HAL_Driver/Src/stm32l0xx_hal_uart_ex.c ****   }
 493:Drivers/STM32L0xx_HAL_Driver/Src/stm32l0xx_hal_uart_ex.c ****   else
 494:Drivers/STM32L0xx_HAL_Driver/Src/stm32l0xx_hal_uart_ex.c ****   {
 495:Drivers/STM32L0xx_HAL_Driver/Src/stm32l0xx_hal_uart_ex.c ****     assert_param(IS_UART_7B_ADDRESS(WakeUpSelection.Address));
 496:Drivers/STM32L0xx_HAL_Driver/Src/stm32l0xx_hal_uart_ex.c ****   }
 497:Drivers/STM32L0xx_HAL_Driver/Src/stm32l0xx_hal_uart_ex.c **** 
 498:Drivers/STM32L0xx_HAL_Driver/Src/stm32l0xx_hal_uart_ex.c ****   /* Set the USART address length */
 499:Drivers/STM32L0xx_HAL_Driver/Src/stm32l0xx_hal_uart_ex.c ****   MODIFY_REG(huart->Instance->CR2, USART_CR2_ADDM7, WakeUpSelection.AddressLength);
  33              		.loc 1 499 0
  34 0006 0168     		ldr	r1, [r0]
  35 0008 4B68     		ldr	r3, [r1, #4]
  36 000a 1022     		mov	r2, #16
  37 000c 9343     		bic	r3, r2
  38 000e 6A46     		mov	r2, sp
  39 0010 9288     		ldrh	r2, [r2, #4]
  40 0012 1343     		orr	r3, r2
  41 0014 4B60     		str	r3, [r1, #4]
 500:Drivers/STM32L0xx_HAL_Driver/Src/stm32l0xx_hal_uart_ex.c **** 
 501:Drivers/STM32L0xx_HAL_Driver/Src/stm32l0xx_hal_uart_ex.c ****   /* Set the USART address node */
 502:Drivers/STM32L0xx_HAL_Driver/Src/stm32l0xx_hal_uart_ex.c ****   MODIFY_REG(huart->Instance->CR2, USART_CR2_ADD, ((uint32_t)WakeUpSelection.Address << UART_CR2_AD
  42              		.loc 1 502 0
  43 0016 0168     		ldr	r1, [r0]
  44 0018 4B68     		ldr	r3, [r1, #4]
  45 001a 1B02     		lsl	r3, r3, #8
  46 001c 1B0A     		lsr	r3, r3, #8
  47 001e 6A46     		mov	r2, sp
  48 0020 9279     		ldrb	r2, [r2, #6]
  49 0022 1206     		lsl	r2, r2, #24
  50 0024 1343     		orr	r3, r2
  51 0026 4B60     		str	r3, [r1, #4]
 503:Drivers/STM32L0xx_HAL_Driver/Src/stm32l0xx_hal_uart_ex.c **** }
  52              		.loc 1 503 0
  53 0028 02B0     		add	sp, sp, #8
  54              		@ sp needed
  55 002a 7047     		bx	lr
  56              		.cfi_endproc
  57              	.LFE44:
  59              		.section	.text.HAL_RS485Ex_Init,"ax",%progbits
  60              		.align	2
  61              		.global	HAL_RS485Ex_Init
  62              		.code	16
  63              		.thumb_func
  65              	HAL_RS485Ex_Init:
  66              	.LFB36:
 165:Drivers/STM32L0xx_HAL_Driver/Src/stm32l0xx_hal_uart_ex.c ****   uint32_t temp = 0x0U;
  67              		.loc 1 165 0
  68              		.cfi_startproc
  69              	.LVL1:
ARM GAS  /tmp/cclVeaaG.s 			page 11


  70 0000 F8B5     		push	{r3, r4, r5, r6, r7, lr}
  71              	.LCFI1:
  72              		.cfi_def_cfa_offset 24
  73              		.cfi_offset 3, -24
  74              		.cfi_offset 4, -20
  75              		.cfi_offset 5, -16
  76              		.cfi_offset 6, -12
  77              		.cfi_offset 7, -8
  78              		.cfi_offset 14, -4
  79              	.LVL2:
 169:Drivers/STM32L0xx_HAL_Driver/Src/stm32l0xx_hal_uart_ex.c ****   {
  80              		.loc 1 169 0
  81 0002 0028     		cmp	r0, #0
  82 0004 3DD0     		beq	.L6
  83 0006 1E1C     		mov	r6, r3
  84 0008 151C     		mov	r5, r2
  85 000a 0F1C     		mov	r7, r1
  86 000c 041C     		mov	r4, r0
 183:Drivers/STM32L0xx_HAL_Driver/Src/stm32l0xx_hal_uart_ex.c ****   {
  87              		.loc 1 183 0
  88 000e 6923     		mov	r3, #105
  89              	.LVL3:
  90 0010 C35C     		ldrb	r3, [r0, r3]
  91 0012 002B     		cmp	r3, #0
  92 0014 04D1     		bne	.L4
 186:Drivers/STM32L0xx_HAL_Driver/Src/stm32l0xx_hal_uart_ex.c **** 
  93              		.loc 1 186 0
  94 0016 0022     		mov	r2, #0
  95              	.LVL4:
  96 0018 6833     		add	r3, r3, #104
  97 001a C254     		strb	r2, [r0, r3]
 189:Drivers/STM32L0xx_HAL_Driver/Src/stm32l0xx_hal_uart_ex.c ****   }
  98              		.loc 1 189 0
  99 001c FFF7FEFF 		bl	HAL_UART_MspInit
 100              	.LVL5:
 101              	.L4:
 192:Drivers/STM32L0xx_HAL_Driver/Src/stm32l0xx_hal_uart_ex.c **** 
 102              		.loc 1 192 0
 103 0020 2422     		mov	r2, #36
 104 0022 6923     		mov	r3, #105
 105 0024 E254     		strb	r2, [r4, r3]
 195:Drivers/STM32L0xx_HAL_Driver/Src/stm32l0xx_hal_uart_ex.c **** 
 106              		.loc 1 195 0
 107 0026 2268     		ldr	r2, [r4]
 108 0028 1368     		ldr	r3, [r2]
 109 002a 0121     		mov	r1, #1
 110 002c 8B43     		bic	r3, r1
 111 002e 1360     		str	r3, [r2]
 198:Drivers/STM32L0xx_HAL_Driver/Src/stm32l0xx_hal_uart_ex.c ****   {
 112              		.loc 1 198 0
 113 0030 636A     		ldr	r3, [r4, #36]
 114 0032 002B     		cmp	r3, #0
 115 0034 02D0     		beq	.L5
 200:Drivers/STM32L0xx_HAL_Driver/Src/stm32l0xx_hal_uart_ex.c ****   }
 116              		.loc 1 200 0
 117 0036 201C     		mov	r0, r4
 118 0038 FFF7FEFF 		bl	UART_AdvFeatureConfig
ARM GAS  /tmp/cclVeaaG.s 			page 12


 119              	.LVL6:
 120              	.L5:
 203:Drivers/STM32L0xx_HAL_Driver/Src/stm32l0xx_hal_uart_ex.c ****   {
 121              		.loc 1 203 0
 122 003c 201C     		mov	r0, r4
 123 003e FFF7FEFF 		bl	UART_SetConfig
 124              	.LVL7:
 125 0042 0128     		cmp	r0, #1
 126 0044 1ED0     		beq	.L3
 209:Drivers/STM32L0xx_HAL_Driver/Src/stm32l0xx_hal_uart_ex.c **** 
 127              		.loc 1 209 0
 128 0046 2268     		ldr	r2, [r4]
 129 0048 9368     		ldr	r3, [r2, #8]
 130 004a 8021     		mov	r1, #128
 131 004c C901     		lsl	r1, r1, #7
 132 004e 0B43     		orr	r3, r1
 133 0050 9360     		str	r3, [r2, #8]
 212:Drivers/STM32L0xx_HAL_Driver/Src/stm32l0xx_hal_uart_ex.c **** 
 134              		.loc 1 212 0
 135 0052 2268     		ldr	r2, [r4]
 136 0054 9168     		ldr	r1, [r2, #8]
 137 0056 0C4B     		ldr	r3, .L7
 138 0058 1940     		and	r1, r3
 139 005a 0F43     		orr	r7, r1
 140              	.LVL8:
 141 005c 9760     		str	r7, [r2, #8]
 215:Drivers/STM32L0xx_HAL_Driver/Src/stm32l0xx_hal_uart_ex.c ****   temp |= (DeassertionTime << UART_CR1_DEDT_ADDRESS_LSB_POS);
 142              		.loc 1 215 0
 143 005e 6D05     		lsl	r5, r5, #21
 144              	.LVL9:
 216:Drivers/STM32L0xx_HAL_Driver/Src/stm32l0xx_hal_uart_ex.c ****   MODIFY_REG(huart->Instance->CR1, (USART_CR1_DEDT|USART_CR1_DEAT), temp);
 145              		.loc 1 216 0
 146 0060 3604     		lsl	r6, r6, #16
 147              	.LVL10:
 148 0062 2E43     		orr	r6, r5
 149              	.LVL11:
 217:Drivers/STM32L0xx_HAL_Driver/Src/stm32l0xx_hal_uart_ex.c **** 
 150              		.loc 1 217 0
 151 0064 2168     		ldr	r1, [r4]
 152 0066 0D68     		ldr	r5, [r1]
 153 0068 084B     		ldr	r3, .L7+4
 154 006a 1D40     		and	r5, r3
 155 006c 3543     		orr	r5, r6
 156 006e 0D60     		str	r5, [r1]
 220:Drivers/STM32L0xx_HAL_Driver/Src/stm32l0xx_hal_uart_ex.c **** 
 157              		.loc 1 220 0
 158 0070 2268     		ldr	r2, [r4]
 159 0072 1168     		ldr	r1, [r2]
 160 0074 0123     		mov	r3, #1
 161 0076 0B43     		orr	r3, r1
 162 0078 1360     		str	r3, [r2]
 223:Drivers/STM32L0xx_HAL_Driver/Src/stm32l0xx_hal_uart_ex.c **** }
 163              		.loc 1 223 0
 164 007a 201C     		mov	r0, r4
 165 007c FFF7FEFF 		bl	UART_CheckIdleState
 166              	.LVL12:
 167 0080 00E0     		b	.L3
ARM GAS  /tmp/cclVeaaG.s 			page 13


 168              	.LVL13:
 169              	.L6:
 171:Drivers/STM32L0xx_HAL_Driver/Src/stm32l0xx_hal_uart_ex.c ****   }
 170              		.loc 1 171 0
 171 0082 0120     		mov	r0, #1
 172              	.LVL14:
 173              	.L3:
 224:Drivers/STM32L0xx_HAL_Driver/Src/stm32l0xx_hal_uart_ex.c **** 
 174              		.loc 1 224 0
 175              		@ sp needed
 176 0084 F8BD     		pop	{r3, r4, r5, r6, r7, pc}
 177              	.L8:
 178 0086 C046     		.align	2
 179              	.L7:
 180 0088 FF7FFFFF 		.word	-32769
 181 008c FFFF00FC 		.word	-67043329
 182              		.cfi_endproc
 183              	.LFE36:
 185              		.section	.text.HAL_MultiProcessorEx_AddressLength_Set,"ax",%progbits
 186              		.align	2
 187              		.global	HAL_MultiProcessorEx_AddressLength_Set
 188              		.code	16
 189              		.thumb_func
 191              	HAL_MultiProcessorEx_AddressLength_Set:
 192              	.LFB37:
 273:Drivers/STM32L0xx_HAL_Driver/Src/stm32l0xx_hal_uart_ex.c ****   /* Check the UART handle allocation */
 193              		.loc 1 273 0
 194              		.cfi_startproc
 195              	.LVL15:
 196 0000 38B5     		push	{r3, r4, r5, lr}
 197              	.LCFI2:
 198              		.cfi_def_cfa_offset 16
 199              		.cfi_offset 3, -16
 200              		.cfi_offset 4, -12
 201              		.cfi_offset 5, -8
 202              		.cfi_offset 14, -4
 275:Drivers/STM32L0xx_HAL_Driver/Src/stm32l0xx_hal_uart_ex.c ****   {
 203              		.loc 1 275 0
 204 0002 0028     		cmp	r0, #0
 205 0004 14D0     		beq	.L11
 283:Drivers/STM32L0xx_HAL_Driver/Src/stm32l0xx_hal_uart_ex.c **** 
 206              		.loc 1 283 0
 207 0006 2422     		mov	r2, #36
 208 0008 6923     		mov	r3, #105
 209 000a C254     		strb	r2, [r0, r3]
 286:Drivers/STM32L0xx_HAL_Driver/Src/stm32l0xx_hal_uart_ex.c **** 
 210              		.loc 1 286 0
 211 000c 0468     		ldr	r4, [r0]
 212 000e 2268     		ldr	r2, [r4]
 213 0010 683B     		sub	r3, r3, #104
 214 0012 9A43     		bic	r2, r3
 215 0014 2260     		str	r2, [r4]
 289:Drivers/STM32L0xx_HAL_Driver/Src/stm32l0xx_hal_uart_ex.c **** 
 216              		.loc 1 289 0
 217 0016 0468     		ldr	r4, [r0]
 218 0018 6268     		ldr	r2, [r4, #4]
 219 001a 1025     		mov	r5, #16
ARM GAS  /tmp/cclVeaaG.s 			page 14


 220 001c AA43     		bic	r2, r5
 221 001e 1143     		orr	r1, r2
 222              	.LVL16:
 223 0020 6160     		str	r1, [r4, #4]
 292:Drivers/STM32L0xx_HAL_Driver/Src/stm32l0xx_hal_uart_ex.c **** 
 224              		.loc 1 292 0
 225 0022 0268     		ldr	r2, [r0]
 226 0024 1168     		ldr	r1, [r2]
 227 0026 0B43     		orr	r3, r1
 228 0028 1360     		str	r3, [r2]
 295:Drivers/STM32L0xx_HAL_Driver/Src/stm32l0xx_hal_uart_ex.c **** }
 229              		.loc 1 295 0
 230 002a FFF7FEFF 		bl	UART_CheckIdleState
 231              	.LVL17:
 232 002e 00E0     		b	.L10
 233              	.LVL18:
 234              	.L11:
 277:Drivers/STM32L0xx_HAL_Driver/Src/stm32l0xx_hal_uart_ex.c ****   }
 235              		.loc 1 277 0
 236 0030 0120     		mov	r0, #1
 237              	.LVL19:
 238              	.L10:
 296:Drivers/STM32L0xx_HAL_Driver/Src/stm32l0xx_hal_uart_ex.c **** 
 239              		.loc 1 296 0
 240              		@ sp needed
 241 0032 38BD     		pop	{r3, r4, r5, pc}
 242              		.cfi_endproc
 243              	.LFE37:
 245              		.section	.text.HAL_UARTEx_StopModeWakeUpSourceConfig,"ax",%progbits
 246              		.align	2
 247              		.global	HAL_UARTEx_StopModeWakeUpSourceConfig
 248              		.code	16
 249              		.thumb_func
 251              	HAL_UARTEx_StopModeWakeUpSourceConfig:
 252              	.LFB38:
 310:Drivers/STM32L0xx_HAL_Driver/Src/stm32l0xx_hal_uart_ex.c ****   HAL_StatusTypeDef status = HAL_OK;
 253              		.loc 1 310 0
 254              		.cfi_startproc
 255              	.LVL20:
 256 0000 10B5     		push	{r4, lr}
 257              	.LCFI3:
 258              		.cfi_def_cfa_offset 8
 259              		.cfi_offset 4, -8
 260              		.cfi_offset 14, -4
 261 0002 84B0     		sub	sp, sp, #16
 262              	.LCFI4:
 263              		.cfi_def_cfa_offset 24
 264 0004 0291     		str	r1, [sp, #8]
 265 0006 0392     		str	r2, [sp, #12]
 266              	.LVL21:
 320:Drivers/STM32L0xx_HAL_Driver/Src/stm32l0xx_hal_uart_ex.c **** 
 267              		.loc 1 320 0
 268 0008 6823     		mov	r3, #104
 269 000a C35C     		ldrb	r3, [r0, r3]
 270 000c 012B     		cmp	r3, #1
 271 000e 32D0     		beq	.L16
 272 0010 041C     		mov	r4, r0
ARM GAS  /tmp/cclVeaaG.s 			page 15


 320:Drivers/STM32L0xx_HAL_Driver/Src/stm32l0xx_hal_uart_ex.c **** 
 273              		.loc 1 320 0 is_stmt 0 discriminator 2
 274 0012 0121     		mov	r1, #1
 275 0014 6823     		mov	r3, #104
 276 0016 C154     		strb	r1, [r0, r3]
 322:Drivers/STM32L0xx_HAL_Driver/Src/stm32l0xx_hal_uart_ex.c **** 
 277              		.loc 1 322 0 is_stmt 1 discriminator 2
 278 0018 2422     		mov	r2, #36
 279 001a 0133     		add	r3, r3, #1
 280 001c C254     		strb	r2, [r0, r3]
 325:Drivers/STM32L0xx_HAL_Driver/Src/stm32l0xx_hal_uart_ex.c **** 
 281              		.loc 1 325 0 discriminator 2
 282 001e 0268     		ldr	r2, [r0]
 283 0020 1368     		ldr	r3, [r2]
 284 0022 8B43     		bic	r3, r1
 285 0024 1360     		str	r3, [r2]
 328:Drivers/STM32L0xx_HAL_Driver/Src/stm32l0xx_hal_uart_ex.c **** 
 286              		.loc 1 328 0 discriminator 2
 287 0026 0168     		ldr	r1, [r0]
 288 0028 8A68     		ldr	r2, [r1, #8]
 289 002a 144B     		ldr	r3, .L18
 290 002c 1340     		and	r3, r2
 291 002e 029A     		ldr	r2, [sp, #8]
 292 0030 1343     		orr	r3, r2
 293 0032 8B60     		str	r3, [r1, #8]
 330:Drivers/STM32L0xx_HAL_Driver/Src/stm32l0xx_hal_uart_ex.c ****   {
 294              		.loc 1 330 0 discriminator 2
 295 0034 002A     		cmp	r2, #0
 296 0036 03D1     		bne	.L14
 332:Drivers/STM32L0xx_HAL_Driver/Src/stm32l0xx_hal_uart_ex.c ****   }
 297              		.loc 1 332 0
 298 0038 111C     		mov	r1, r2
 299 003a 039A     		ldr	r2, [sp, #12]
 300 003c FFF7FEFF 		bl	UARTEx_Wakeup_AddressConfig
 301              	.LVL22:
 302              	.L14:
 336:Drivers/STM32L0xx_HAL_Driver/Src/stm32l0xx_hal_uart_ex.c **** 
 303              		.loc 1 336 0
 304 0040 2268     		ldr	r2, [r4]
 305 0042 1168     		ldr	r1, [r2]
 306 0044 0123     		mov	r3, #1
 307 0046 0B43     		orr	r3, r1
 308 0048 1360     		str	r3, [r2]
 339:Drivers/STM32L0xx_HAL_Driver/Src/stm32l0xx_hal_uart_ex.c **** 
 309              		.loc 1 339 0
 310 004a FFF7FEFF 		bl	HAL_GetTick
 311              	.LVL23:
 312 004e 031C     		mov	r3, r0
 313              	.LVL24:
 342:Drivers/STM32L0xx_HAL_Driver/Src/stm32l0xx_hal_uart_ex.c ****   {
 314              		.loc 1 342 0
 315 0050 0B4A     		ldr	r2, .L18+4
 316 0052 0092     		str	r2, [sp]
 317 0054 201C     		mov	r0, r4
 318              	.LVL25:
 319 0056 8021     		mov	r1, #128
 320 0058 C903     		lsl	r1, r1, #15
ARM GAS  /tmp/cclVeaaG.s 			page 16


 321 005a 0022     		mov	r2, #0
 322 005c FFF7FEFF 		bl	UART_WaitOnFlagUntilTimeout
 323              	.LVL26:
 324 0060 0028     		cmp	r0, #0
 325 0062 03D1     		bne	.L17
 349:Drivers/STM32L0xx_HAL_Driver/Src/stm32l0xx_hal_uart_ex.c ****   }
 326              		.loc 1 349 0
 327 0064 2022     		mov	r2, #32
 328 0066 6923     		mov	r3, #105
 329 0068 E254     		strb	r2, [r4, r3]
 330 006a 00E0     		b	.L15
 331              	.L17:
 344:Drivers/STM32L0xx_HAL_Driver/Src/stm32l0xx_hal_uart_ex.c ****   }
 332              		.loc 1 344 0
 333 006c 0320     		mov	r0, #3
 334              	.L15:
 335              	.LVL27:
 353:Drivers/STM32L0xx_HAL_Driver/Src/stm32l0xx_hal_uart_ex.c **** 
 336              		.loc 1 353 0
 337 006e 0022     		mov	r2, #0
 338 0070 6823     		mov	r3, #104
 339 0072 E254     		strb	r2, [r4, r3]
 355:Drivers/STM32L0xx_HAL_Driver/Src/stm32l0xx_hal_uart_ex.c **** }
 340              		.loc 1 355 0
 341 0074 00E0     		b	.L13
 342              	.LVL28:
 343              	.L16:
 320:Drivers/STM32L0xx_HAL_Driver/Src/stm32l0xx_hal_uart_ex.c **** 
 344              		.loc 1 320 0
 345 0076 0220     		mov	r0, #2
 346              	.LVL29:
 347              	.L13:
 356:Drivers/STM32L0xx_HAL_Driver/Src/stm32l0xx_hal_uart_ex.c **** 
 348              		.loc 1 356 0
 349 0078 04B0     		add	sp, sp, #16
 350              		@ sp needed
 351 007a 10BD     		pop	{r4, pc}
 352              	.L19:
 353              		.align	2
 354              	.L18:
 355 007c FFFFCFFF 		.word	-3145729
 356 0080 FFFFFF01 		.word	33554431
 357              		.cfi_endproc
 358              	.LFE38:
 360              		.section	.text.HAL_UARTEx_EnableStopMode,"ax",%progbits
 361              		.align	2
 362              		.global	HAL_UARTEx_EnableStopMode
 363              		.code	16
 364              		.thumb_func
 366              	HAL_UARTEx_EnableStopMode:
 367              	.LFB39:
 366:Drivers/STM32L0xx_HAL_Driver/Src/stm32l0xx_hal_uart_ex.c ****   /* Process Locked */
 368              		.loc 1 366 0
 369              		.cfi_startproc
 370              	.LVL30:
 371 0000 30B5     		push	{r4, r5, lr}
 372              	.LCFI5:
ARM GAS  /tmp/cclVeaaG.s 			page 17


 373              		.cfi_def_cfa_offset 12
 374              		.cfi_offset 4, -12
 375              		.cfi_offset 5, -8
 376              		.cfi_offset 14, -4
 368:Drivers/STM32L0xx_HAL_Driver/Src/stm32l0xx_hal_uart_ex.c **** 
 377              		.loc 1 368 0
 378 0002 6823     		mov	r3, #104
 379 0004 C35C     		ldrb	r3, [r0, r3]
 380 0006 012B     		cmp	r3, #1
 381 0008 10D0     		beq	.L22
 368:Drivers/STM32L0xx_HAL_Driver/Src/stm32l0xx_hal_uart_ex.c **** 
 382              		.loc 1 368 0 is_stmt 0 discriminator 2
 383 000a 6822     		mov	r2, #104
 384 000c 0123     		mov	r3, #1
 385 000e 8354     		strb	r3, [r0, r2]
 370:Drivers/STM32L0xx_HAL_Driver/Src/stm32l0xx_hal_uart_ex.c **** 
 386              		.loc 1 370 0 is_stmt 1 discriminator 2
 387 0010 6921     		mov	r1, #105
 388 0012 2333     		add	r3, r3, #35
 389 0014 4354     		strb	r3, [r0, r1]
 373:Drivers/STM32L0xx_HAL_Driver/Src/stm32l0xx_hal_uart_ex.c **** 
 390              		.loc 1 373 0 discriminator 2
 391 0016 0468     		ldr	r4, [r0]
 392 0018 2568     		ldr	r5, [r4]
 393 001a 223B     		sub	r3, r3, #34
 394 001c 2B43     		orr	r3, r5
 395 001e 2360     		str	r3, [r4]
 375:Drivers/STM32L0xx_HAL_Driver/Src/stm32l0xx_hal_uart_ex.c **** 
 396              		.loc 1 375 0 discriminator 2
 397 0020 2023     		mov	r3, #32
 398 0022 4354     		strb	r3, [r0, r1]
 378:Drivers/STM32L0xx_HAL_Driver/Src/stm32l0xx_hal_uart_ex.c **** 
 399              		.loc 1 378 0 discriminator 2
 400 0024 0023     		mov	r3, #0
 401 0026 8354     		strb	r3, [r0, r2]
 380:Drivers/STM32L0xx_HAL_Driver/Src/stm32l0xx_hal_uart_ex.c **** }
 402              		.loc 1 380 0 discriminator 2
 403 0028 0020     		mov	r0, #0
 404              	.LVL31:
 405 002a 00E0     		b	.L21
 406              	.LVL32:
 407              	.L22:
 368:Drivers/STM32L0xx_HAL_Driver/Src/stm32l0xx_hal_uart_ex.c **** 
 408              		.loc 1 368 0
 409 002c 0220     		mov	r0, #2
 410              	.LVL33:
 411              	.L21:
 381:Drivers/STM32L0xx_HAL_Driver/Src/stm32l0xx_hal_uart_ex.c **** 
 412              		.loc 1 381 0
 413              		@ sp needed
 414 002e 30BD     		pop	{r4, r5, pc}
 415              		.cfi_endproc
 416              	.LFE39:
 418              		.section	.text.HAL_UARTEx_DisableStopMode,"ax",%progbits
 419              		.align	2
 420              		.global	HAL_UARTEx_DisableStopMode
 421              		.code	16
ARM GAS  /tmp/cclVeaaG.s 			page 18


 422              		.thumb_func
 424              	HAL_UARTEx_DisableStopMode:
 425              	.LFB40:
 389:Drivers/STM32L0xx_HAL_Driver/Src/stm32l0xx_hal_uart_ex.c ****   /* Process Locked */
 426              		.loc 1 389 0
 427              		.cfi_startproc
 428              	.LVL34:
 429 0000 30B5     		push	{r4, r5, lr}
 430              	.LCFI6:
 431              		.cfi_def_cfa_offset 12
 432              		.cfi_offset 4, -12
 433              		.cfi_offset 5, -8
 434              		.cfi_offset 14, -4
 391:Drivers/STM32L0xx_HAL_Driver/Src/stm32l0xx_hal_uart_ex.c **** 
 435              		.loc 1 391 0
 436 0002 6823     		mov	r3, #104
 437 0004 C35C     		ldrb	r3, [r0, r3]
 438 0006 012B     		cmp	r3, #1
 439 0008 10D0     		beq	.L25
 391:Drivers/STM32L0xx_HAL_Driver/Src/stm32l0xx_hal_uart_ex.c **** 
 440              		.loc 1 391 0 is_stmt 0 discriminator 2
 441 000a 6822     		mov	r2, #104
 442 000c 0123     		mov	r3, #1
 443 000e 8354     		strb	r3, [r0, r2]
 393:Drivers/STM32L0xx_HAL_Driver/Src/stm32l0xx_hal_uart_ex.c **** 
 444              		.loc 1 393 0 is_stmt 1 discriminator 2
 445 0010 6921     		mov	r1, #105
 446 0012 2333     		add	r3, r3, #35
 447 0014 4354     		strb	r3, [r0, r1]
 396:Drivers/STM32L0xx_HAL_Driver/Src/stm32l0xx_hal_uart_ex.c **** 
 448              		.loc 1 396 0 discriminator 2
 449 0016 0468     		ldr	r4, [r0]
 450 0018 2368     		ldr	r3, [r4]
 451 001a 0225     		mov	r5, #2
 452 001c AB43     		bic	r3, r5
 453 001e 2360     		str	r3, [r4]
 398:Drivers/STM32L0xx_HAL_Driver/Src/stm32l0xx_hal_uart_ex.c **** 
 454              		.loc 1 398 0 discriminator 2
 455 0020 2023     		mov	r3, #32
 456 0022 4354     		strb	r3, [r0, r1]
 401:Drivers/STM32L0xx_HAL_Driver/Src/stm32l0xx_hal_uart_ex.c **** 
 457              		.loc 1 401 0 discriminator 2
 458 0024 0023     		mov	r3, #0
 459 0026 8354     		strb	r3, [r0, r2]
 403:Drivers/STM32L0xx_HAL_Driver/Src/stm32l0xx_hal_uart_ex.c **** }
 460              		.loc 1 403 0 discriminator 2
 461 0028 0020     		mov	r0, #0
 462              	.LVL35:
 463 002a 00E0     		b	.L24
 464              	.LVL36:
 465              	.L25:
 391:Drivers/STM32L0xx_HAL_Driver/Src/stm32l0xx_hal_uart_ex.c **** 
 466              		.loc 1 391 0
 467 002c 0220     		mov	r0, #2
 468              	.LVL37:
 469              	.L24:
 404:Drivers/STM32L0xx_HAL_Driver/Src/stm32l0xx_hal_uart_ex.c **** 
ARM GAS  /tmp/cclVeaaG.s 			page 19


 470              		.loc 1 404 0
 471              		@ sp needed
 472 002e 30BD     		pop	{r4, r5, pc}
 473              		.cfi_endproc
 474              	.LFE40:
 476              		.section	.text.HAL_UARTEx_EnableClockStopMode,"ax",%progbits
 477              		.align	2
 478              		.global	HAL_UARTEx_EnableClockStopMode
 479              		.code	16
 480              		.thumb_func
 482              	HAL_UARTEx_EnableClockStopMode:
 483              	.LFB41:
 413:Drivers/STM32L0xx_HAL_Driver/Src/stm32l0xx_hal_uart_ex.c ****   /* Process Locked */
 484              		.loc 1 413 0
 485              		.cfi_startproc
 486              	.LVL38:
 487 0000 30B5     		push	{r4, r5, lr}
 488              	.LCFI7:
 489              		.cfi_def_cfa_offset 12
 490              		.cfi_offset 4, -12
 491              		.cfi_offset 5, -8
 492              		.cfi_offset 14, -4
 415:Drivers/STM32L0xx_HAL_Driver/Src/stm32l0xx_hal_uart_ex.c ****   
 493              		.loc 1 415 0
 494 0002 6823     		mov	r3, #104
 495 0004 C35C     		ldrb	r3, [r0, r3]
 496 0006 012B     		cmp	r3, #1
 497 0008 11D0     		beq	.L28
 415:Drivers/STM32L0xx_HAL_Driver/Src/stm32l0xx_hal_uart_ex.c ****   
 498              		.loc 1 415 0 is_stmt 0 discriminator 2
 499 000a 6822     		mov	r2, #104
 500 000c 0123     		mov	r3, #1
 501 000e 8354     		strb	r3, [r0, r2]
 417:Drivers/STM32L0xx_HAL_Driver/Src/stm32l0xx_hal_uart_ex.c ****   
 502              		.loc 1 417 0 is_stmt 1 discriminator 2
 503 0010 6921     		mov	r1, #105
 504 0012 2333     		add	r3, r3, #35
 505 0014 4354     		strb	r3, [r0, r1]
 420:Drivers/STM32L0xx_HAL_Driver/Src/stm32l0xx_hal_uart_ex.c ****   
 506              		.loc 1 420 0 discriminator 2
 507 0016 0468     		ldr	r4, [r0]
 508 0018 A368     		ldr	r3, [r4, #8]
 509 001a 8025     		mov	r5, #128
 510 001c 2D04     		lsl	r5, r5, #16
 511 001e 2B43     		orr	r3, r5
 512 0020 A360     		str	r3, [r4, #8]
 422:Drivers/STM32L0xx_HAL_Driver/Src/stm32l0xx_hal_uart_ex.c ****   
 513              		.loc 1 422 0 discriminator 2
 514 0022 2023     		mov	r3, #32
 515 0024 4354     		strb	r3, [r0, r1]
 425:Drivers/STM32L0xx_HAL_Driver/Src/stm32l0xx_hal_uart_ex.c ****   
 516              		.loc 1 425 0 discriminator 2
 517 0026 0023     		mov	r3, #0
 518 0028 8354     		strb	r3, [r0, r2]
 427:Drivers/STM32L0xx_HAL_Driver/Src/stm32l0xx_hal_uart_ex.c **** }
 519              		.loc 1 427 0 discriminator 2
 520 002a 0020     		mov	r0, #0
ARM GAS  /tmp/cclVeaaG.s 			page 20


 521              	.LVL39:
 522 002c 00E0     		b	.L27
 523              	.LVL40:
 524              	.L28:
 415:Drivers/STM32L0xx_HAL_Driver/Src/stm32l0xx_hal_uart_ex.c ****   
 525              		.loc 1 415 0
 526 002e 0220     		mov	r0, #2
 527              	.LVL41:
 528              	.L27:
 428:Drivers/STM32L0xx_HAL_Driver/Src/stm32l0xx_hal_uart_ex.c **** 
 529              		.loc 1 428 0
 530              		@ sp needed
 531 0030 30BD     		pop	{r4, r5, pc}
 532              		.cfi_endproc
 533              	.LFE41:
 535 0032 C046     		.section	.text.HAL_UARTEx_DisableClockStopMode,"ax",%progbits
 536              		.align	2
 537              		.global	HAL_UARTEx_DisableClockStopMode
 538              		.code	16
 539              		.thumb_func
 541              	HAL_UARTEx_DisableClockStopMode:
 542              	.LFB42:
 436:Drivers/STM32L0xx_HAL_Driver/Src/stm32l0xx_hal_uart_ex.c ****   /* Process Locked */
 543              		.loc 1 436 0
 544              		.cfi_startproc
 545              	.LVL42:
 546 0000 30B5     		push	{r4, r5, lr}
 547              	.LCFI8:
 548              		.cfi_def_cfa_offset 12
 549              		.cfi_offset 4, -12
 550              		.cfi_offset 5, -8
 551              		.cfi_offset 14, -4
 438:Drivers/STM32L0xx_HAL_Driver/Src/stm32l0xx_hal_uart_ex.c **** 
 552              		.loc 1 438 0
 553 0002 6823     		mov	r3, #104
 554 0004 C35C     		ldrb	r3, [r0, r3]
 555 0006 012B     		cmp	r3, #1
 556 0008 10D0     		beq	.L31
 438:Drivers/STM32L0xx_HAL_Driver/Src/stm32l0xx_hal_uart_ex.c **** 
 557              		.loc 1 438 0 is_stmt 0 discriminator 2
 558 000a 6822     		mov	r2, #104
 559 000c 0123     		mov	r3, #1
 560 000e 8354     		strb	r3, [r0, r2]
 440:Drivers/STM32L0xx_HAL_Driver/Src/stm32l0xx_hal_uart_ex.c **** 
 561              		.loc 1 440 0 is_stmt 1 discriminator 2
 562 0010 6921     		mov	r1, #105
 563 0012 2333     		add	r3, r3, #35
 564 0014 4354     		strb	r3, [r0, r1]
 443:Drivers/STM32L0xx_HAL_Driver/Src/stm32l0xx_hal_uart_ex.c **** 
 565              		.loc 1 443 0 discriminator 2
 566 0016 0468     		ldr	r4, [r0]
 567 0018 A568     		ldr	r5, [r4, #8]
 568 001a 054B     		ldr	r3, .L32
 569 001c 2B40     		and	r3, r5
 570 001e A360     		str	r3, [r4, #8]
 445:Drivers/STM32L0xx_HAL_Driver/Src/stm32l0xx_hal_uart_ex.c **** 
 571              		.loc 1 445 0 discriminator 2
ARM GAS  /tmp/cclVeaaG.s 			page 21


 572 0020 2023     		mov	r3, #32
 573 0022 4354     		strb	r3, [r0, r1]
 448:Drivers/STM32L0xx_HAL_Driver/Src/stm32l0xx_hal_uart_ex.c **** 
 574              		.loc 1 448 0 discriminator 2
 575 0024 0023     		mov	r3, #0
 576 0026 8354     		strb	r3, [r0, r2]
 450:Drivers/STM32L0xx_HAL_Driver/Src/stm32l0xx_hal_uart_ex.c **** }
 577              		.loc 1 450 0 discriminator 2
 578 0028 0020     		mov	r0, #0
 579              	.LVL43:
 580 002a 00E0     		b	.L30
 581              	.LVL44:
 582              	.L31:
 438:Drivers/STM32L0xx_HAL_Driver/Src/stm32l0xx_hal_uart_ex.c **** 
 583              		.loc 1 438 0
 584 002c 0220     		mov	r0, #2
 585              	.LVL45:
 586              	.L30:
 451:Drivers/STM32L0xx_HAL_Driver/Src/stm32l0xx_hal_uart_ex.c **** 
 587              		.loc 1 451 0
 588              		@ sp needed
 589 002e 30BD     		pop	{r4, r5, pc}
 590              	.L33:
 591              		.align	2
 592              	.L32:
 593 0030 FFFF7FFF 		.word	-8388609
 594              		.cfi_endproc
 595              	.LFE42:
 597              		.section	.text.HAL_UARTEx_WakeupCallback,"ax",%progbits
 598              		.align	2
 599              		.weak	HAL_UARTEx_WakeupCallback
 600              		.code	16
 601              		.thumb_func
 603              	HAL_UARTEx_WakeupCallback:
 604              	.LFB43:
 459:Drivers/STM32L0xx_HAL_Driver/Src/stm32l0xx_hal_uart_ex.c ****   /* Prevent unused argument(s) compilation warning */
 605              		.loc 1 459 0
 606              		.cfi_startproc
 607              	.LVL46:
 466:Drivers/STM32L0xx_HAL_Driver/Src/stm32l0xx_hal_uart_ex.c **** 
 608              		.loc 1 466 0
 609              		@ sp needed
 610 0000 7047     		bx	lr
 611              		.cfi_endproc
 612              	.LFE43:
 614 0002 C046     		.text
 615              	.Letext0:
 616              		.file 2 "/usr/include/newlib/machine/_default_types.h"
 617              		.file 3 "/usr/include/newlib/sys/_stdint.h"
 618              		.file 4 "Drivers/CMSIS/Device/ST/STM32L0xx/Include/stm32l071xx.h"
 619              		.file 5 "Drivers/CMSIS/Device/ST/STM32L0xx/Include/stm32l0xx.h"
 620              		.file 6 "Drivers/STM32L0xx_HAL_Driver/Inc/stm32l0xx_hal_def.h"
 621              		.file 7 "Drivers/STM32L0xx_HAL_Driver/Inc/stm32l0xx_hal_dma.h"
 622              		.file 8 "Drivers/STM32L0xx_HAL_Driver/Inc/stm32l0xx_hal_uart.h"
 623              		.file 9 "Drivers/STM32L0xx_HAL_Driver/Inc/stm32l0xx_hal_uart_ex.h"
 624              		.file 10 "Drivers/STM32L0xx_HAL_Driver/Inc/stm32l0xx_hal.h"
ARM GAS  /tmp/cclVeaaG.s 			page 22

