ARM GAS  /tmp/ccWNGGuS.s 			page 1


   1              		.cpu cortex-m0plus
   2              		.fpu softvfp
   3              		.eabi_attribute 20, 1
   4              		.eabi_attribute 21, 1
   5              		.eabi_attribute 23, 3
   6              		.eabi_attribute 24, 1
   7              		.eabi_attribute 25, 1
   8              		.eabi_attribute 26, 1
   9              		.eabi_attribute 30, 1
  10              		.eabi_attribute 34, 0
  11              		.eabi_attribute 18, 4
  12              		.code	16
  13              		.file	"stm32l0xx_hal_rcc.c"
  14              		.text
  15              	.Ltext0:
  16              		.cfi_sections	.debug_frame
  17              		.section	.text.RCC_SetFlashLatencyFromMSIRange,"ax",%progbits
  18              		.align	2
  19              		.code	16
  20              		.thumb_func
  22              	RCC_SetFlashLatencyFromMSIRange:
  23              	.LFB49:
  24              		.file 1 "Drivers/STM32L0xx_HAL_Driver/Src/stm32l0xx_hal_rcc.c"
   1:Drivers/STM32L0xx_HAL_Driver/Src/stm32l0xx_hal_rcc.c **** /**
   2:Drivers/STM32L0xx_HAL_Driver/Src/stm32l0xx_hal_rcc.c ****   ******************************************************************************
   3:Drivers/STM32L0xx_HAL_Driver/Src/stm32l0xx_hal_rcc.c ****   * @file    stm32l0xx_hal_rcc.c
   4:Drivers/STM32L0xx_HAL_Driver/Src/stm32l0xx_hal_rcc.c ****   * @author  MCD Application Team
   5:Drivers/STM32L0xx_HAL_Driver/Src/stm32l0xx_hal_rcc.c ****   * @brief   RCC HAL module driver.
   6:Drivers/STM32L0xx_HAL_Driver/Src/stm32l0xx_hal_rcc.c ****   *          This file provides firmware functions to manage the following 
   7:Drivers/STM32L0xx_HAL_Driver/Src/stm32l0xx_hal_rcc.c ****   *          functionalities of the Reset and Clock Control (RCC) peripheral:
   8:Drivers/STM32L0xx_HAL_Driver/Src/stm32l0xx_hal_rcc.c ****   *           + Initialization and de-initialization functions
   9:Drivers/STM32L0xx_HAL_Driver/Src/stm32l0xx_hal_rcc.c ****   *           + Peripheral Control functions
  10:Drivers/STM32L0xx_HAL_Driver/Src/stm32l0xx_hal_rcc.c ****   *       
  11:Drivers/STM32L0xx_HAL_Driver/Src/stm32l0xx_hal_rcc.c ****   @verbatim                
  12:Drivers/STM32L0xx_HAL_Driver/Src/stm32l0xx_hal_rcc.c ****   ==============================================================================
  13:Drivers/STM32L0xx_HAL_Driver/Src/stm32l0xx_hal_rcc.c ****                       ##### RCC specific features #####
  14:Drivers/STM32L0xx_HAL_Driver/Src/stm32l0xx_hal_rcc.c ****   ==============================================================================
  15:Drivers/STM32L0xx_HAL_Driver/Src/stm32l0xx_hal_rcc.c ****     [..]  
  16:Drivers/STM32L0xx_HAL_Driver/Src/stm32l0xx_hal_rcc.c ****       After reset the device is running from multispeed internal oscillator clock 
  17:Drivers/STM32L0xx_HAL_Driver/Src/stm32l0xx_hal_rcc.c ****       (MSI 2.097MHz) with Flash 0 wait state and Flash prefetch buffer is disabled, 
  18:Drivers/STM32L0xx_HAL_Driver/Src/stm32l0xx_hal_rcc.c ****       and all peripherals are off except internal SRAM, Flash and JTAG.
  19:Drivers/STM32L0xx_HAL_Driver/Src/stm32l0xx_hal_rcc.c ****       (+) There is no prescaler on High speed (AHB) and Low speed (APB) buses;
  20:Drivers/STM32L0xx_HAL_Driver/Src/stm32l0xx_hal_rcc.c ****           all peripherals mapped on these buses are running at MSI speed.
  21:Drivers/STM32L0xx_HAL_Driver/Src/stm32l0xx_hal_rcc.c ****       (+) The clock for all peripherals is switched off, except the SRAM and FLASH.
  22:Drivers/STM32L0xx_HAL_Driver/Src/stm32l0xx_hal_rcc.c ****       (+) All GPIOs are in input floating state, except the JTAG pins which
  23:Drivers/STM32L0xx_HAL_Driver/Src/stm32l0xx_hal_rcc.c ****           are assigned to be used for debug purpose.
  24:Drivers/STM32L0xx_HAL_Driver/Src/stm32l0xx_hal_rcc.c ****     [..] Once the device started from reset, the user application has to:
  25:Drivers/STM32L0xx_HAL_Driver/Src/stm32l0xx_hal_rcc.c ****       (+) Configure the clock source to be used to drive the System clock
  26:Drivers/STM32L0xx_HAL_Driver/Src/stm32l0xx_hal_rcc.c ****           (if the application needs higher frequency/performance)
  27:Drivers/STM32L0xx_HAL_Driver/Src/stm32l0xx_hal_rcc.c ****       (+) Configure the System clock frequency and Flash settings  
  28:Drivers/STM32L0xx_HAL_Driver/Src/stm32l0xx_hal_rcc.c ****       (+) Configure the AHB and APB buses prescalers
  29:Drivers/STM32L0xx_HAL_Driver/Src/stm32l0xx_hal_rcc.c ****       (+) Enable the clock for the peripheral(s) to be used
  30:Drivers/STM32L0xx_HAL_Driver/Src/stm32l0xx_hal_rcc.c ****       (+) Configure the clock source(s) for peripherals whose clocks are not
  31:Drivers/STM32L0xx_HAL_Driver/Src/stm32l0xx_hal_rcc.c ****           derived from the System clock (I2S, RTC, ADC, USB OTG FS/SDIO/RNG) 
  32:Drivers/STM32L0xx_HAL_Driver/Src/stm32l0xx_hal_rcc.c ****           (*) SDIO only for STM32L0xxxD devices
  33:Drivers/STM32L0xx_HAL_Driver/Src/stm32l0xx_hal_rcc.c **** 
  34:Drivers/STM32L0xx_HAL_Driver/Src/stm32l0xx_hal_rcc.c ****                       ##### RCC Limitations #####
ARM GAS  /tmp/ccWNGGuS.s 			page 2


  35:Drivers/STM32L0xx_HAL_Driver/Src/stm32l0xx_hal_rcc.c ****   ==============================================================================
  36:Drivers/STM32L0xx_HAL_Driver/Src/stm32l0xx_hal_rcc.c ****     [..]  
  37:Drivers/STM32L0xx_HAL_Driver/Src/stm32l0xx_hal_rcc.c ****       A delay between an RCC peripheral clock enable and the effective peripheral 
  38:Drivers/STM32L0xx_HAL_Driver/Src/stm32l0xx_hal_rcc.c ****       enabling should be taken into account in order to manage the peripheral read/write 
  39:Drivers/STM32L0xx_HAL_Driver/Src/stm32l0xx_hal_rcc.c ****       from/to registers.
  40:Drivers/STM32L0xx_HAL_Driver/Src/stm32l0xx_hal_rcc.c ****       (+) This delay depends on the peripheral mapping.
  41:Drivers/STM32L0xx_HAL_Driver/Src/stm32l0xx_hal_rcc.c ****         (++) AHB & APB peripherals, 1 dummy read is necessary
  42:Drivers/STM32L0xx_HAL_Driver/Src/stm32l0xx_hal_rcc.c **** 
  43:Drivers/STM32L0xx_HAL_Driver/Src/stm32l0xx_hal_rcc.c ****     [..]  
  44:Drivers/STM32L0xx_HAL_Driver/Src/stm32l0xx_hal_rcc.c ****       Workarounds:
  45:Drivers/STM32L0xx_HAL_Driver/Src/stm32l0xx_hal_rcc.c ****       (#) For AHB & APB peripherals, a dummy read to the peripheral register has been
  46:Drivers/STM32L0xx_HAL_Driver/Src/stm32l0xx_hal_rcc.c ****           inserted in each __HAL_RCC_PPP_CLK_ENABLE() macro.
  47:Drivers/STM32L0xx_HAL_Driver/Src/stm32l0xx_hal_rcc.c **** 
  48:Drivers/STM32L0xx_HAL_Driver/Src/stm32l0xx_hal_rcc.c ****   @endverbatim
  49:Drivers/STM32L0xx_HAL_Driver/Src/stm32l0xx_hal_rcc.c ****   ******************************************************************************
  50:Drivers/STM32L0xx_HAL_Driver/Src/stm32l0xx_hal_rcc.c ****   * @attention
  51:Drivers/STM32L0xx_HAL_Driver/Src/stm32l0xx_hal_rcc.c ****   *
  52:Drivers/STM32L0xx_HAL_Driver/Src/stm32l0xx_hal_rcc.c ****   * <h2><center>&copy; COPYRIGHT(c) 2016 STMicroelectronics</center></h2>
  53:Drivers/STM32L0xx_HAL_Driver/Src/stm32l0xx_hal_rcc.c ****   *
  54:Drivers/STM32L0xx_HAL_Driver/Src/stm32l0xx_hal_rcc.c ****   * Redistribution and use in source and binary forms, with or without modification,
  55:Drivers/STM32L0xx_HAL_Driver/Src/stm32l0xx_hal_rcc.c ****   * are permitted provided that the following conditions are met:
  56:Drivers/STM32L0xx_HAL_Driver/Src/stm32l0xx_hal_rcc.c ****   *   1. Redistributions of source code must retain the above copyright notice,
  57:Drivers/STM32L0xx_HAL_Driver/Src/stm32l0xx_hal_rcc.c ****   *      this list of conditions and the following disclaimer.
  58:Drivers/STM32L0xx_HAL_Driver/Src/stm32l0xx_hal_rcc.c ****   *   2. Redistributions in binary form must reproduce the above copyright notice,
  59:Drivers/STM32L0xx_HAL_Driver/Src/stm32l0xx_hal_rcc.c ****   *      this list of conditions and the following disclaimer in the documentation
  60:Drivers/STM32L0xx_HAL_Driver/Src/stm32l0xx_hal_rcc.c ****   *      and/or other materials provided with the distribution.
  61:Drivers/STM32L0xx_HAL_Driver/Src/stm32l0xx_hal_rcc.c ****   *   3. Neither the name of STMicroelectronics nor the names of its contributors
  62:Drivers/STM32L0xx_HAL_Driver/Src/stm32l0xx_hal_rcc.c ****   *      may be used to endorse or promote products derived from this software
  63:Drivers/STM32L0xx_HAL_Driver/Src/stm32l0xx_hal_rcc.c ****   *      without specific prior written permission.
  64:Drivers/STM32L0xx_HAL_Driver/Src/stm32l0xx_hal_rcc.c ****   *
  65:Drivers/STM32L0xx_HAL_Driver/Src/stm32l0xx_hal_rcc.c ****   * THIS SOFTWARE IS PROVIDED BY THE COPYRIGHT HOLDERS AND CONTRIBUTORS "AS IS"
  66:Drivers/STM32L0xx_HAL_Driver/Src/stm32l0xx_hal_rcc.c ****   * AND ANY EXPRESS OR IMPLIED WARRANTIES, INCLUDING, BUT NOT LIMITED TO, THE
  67:Drivers/STM32L0xx_HAL_Driver/Src/stm32l0xx_hal_rcc.c ****   * IMPLIED WARRANTIES OF MERCHANTABILITY AND FITNESS FOR A PARTICULAR PURPOSE ARE
  68:Drivers/STM32L0xx_HAL_Driver/Src/stm32l0xx_hal_rcc.c ****   * DISCLAIMED. IN NO EVENT SHALL THE COPYRIGHT HOLDER OR CONTRIBUTORS BE LIABLE
  69:Drivers/STM32L0xx_HAL_Driver/Src/stm32l0xx_hal_rcc.c ****   * FOR ANY DIRECT, INDIRECT, INCIDENTAL, SPECIAL, EXEMPLARY, OR CONSEQUENTIAL
  70:Drivers/STM32L0xx_HAL_Driver/Src/stm32l0xx_hal_rcc.c ****   * DAMAGES (INCLUDING, BUT NOT LIMITED TO, PROCUREMENT OF SUBSTITUTE GOODS OR
  71:Drivers/STM32L0xx_HAL_Driver/Src/stm32l0xx_hal_rcc.c ****   * SERVICES; LOSS OF USE, DATA, OR PROFITS; OR BUSINESS INTERRUPTION) HOWEVER
  72:Drivers/STM32L0xx_HAL_Driver/Src/stm32l0xx_hal_rcc.c ****   * CAUSED AND ON ANY THEORY OF LIABILITY, WHETHER IN CONTRACT, STRICT LIABILITY,
  73:Drivers/STM32L0xx_HAL_Driver/Src/stm32l0xx_hal_rcc.c ****   * OR TORT (INCLUDING NEGLIGENCE OR OTHERWISE) ARISING IN ANY WAY OUT OF THE USE
  74:Drivers/STM32L0xx_HAL_Driver/Src/stm32l0xx_hal_rcc.c ****   * OF THIS SOFTWARE, EVEN IF ADVISED OF THE POSSIBILITY OF SUCH DAMAGE.
  75:Drivers/STM32L0xx_HAL_Driver/Src/stm32l0xx_hal_rcc.c ****   *
  76:Drivers/STM32L0xx_HAL_Driver/Src/stm32l0xx_hal_rcc.c ****   ******************************************************************************  
  77:Drivers/STM32L0xx_HAL_Driver/Src/stm32l0xx_hal_rcc.c **** */
  78:Drivers/STM32L0xx_HAL_Driver/Src/stm32l0xx_hal_rcc.c **** 
  79:Drivers/STM32L0xx_HAL_Driver/Src/stm32l0xx_hal_rcc.c **** /* Includes ------------------------------------------------------------------*/
  80:Drivers/STM32L0xx_HAL_Driver/Src/stm32l0xx_hal_rcc.c **** #include "stm32l0xx_hal.h"
  81:Drivers/STM32L0xx_HAL_Driver/Src/stm32l0xx_hal_rcc.c **** 
  82:Drivers/STM32L0xx_HAL_Driver/Src/stm32l0xx_hal_rcc.c **** /** @addtogroup STM32L0xx_HAL_Driver
  83:Drivers/STM32L0xx_HAL_Driver/Src/stm32l0xx_hal_rcc.c ****   * @{
  84:Drivers/STM32L0xx_HAL_Driver/Src/stm32l0xx_hal_rcc.c ****   */
  85:Drivers/STM32L0xx_HAL_Driver/Src/stm32l0xx_hal_rcc.c **** 
  86:Drivers/STM32L0xx_HAL_Driver/Src/stm32l0xx_hal_rcc.c **** /** @defgroup RCC RCC
  87:Drivers/STM32L0xx_HAL_Driver/Src/stm32l0xx_hal_rcc.c **** * @brief RCC HAL module driver
  88:Drivers/STM32L0xx_HAL_Driver/Src/stm32l0xx_hal_rcc.c ****   * @{
  89:Drivers/STM32L0xx_HAL_Driver/Src/stm32l0xx_hal_rcc.c ****   */
  90:Drivers/STM32L0xx_HAL_Driver/Src/stm32l0xx_hal_rcc.c **** 
  91:Drivers/STM32L0xx_HAL_Driver/Src/stm32l0xx_hal_rcc.c **** #ifdef HAL_RCC_MODULE_ENABLED
ARM GAS  /tmp/ccWNGGuS.s 			page 3


  92:Drivers/STM32L0xx_HAL_Driver/Src/stm32l0xx_hal_rcc.c **** 
  93:Drivers/STM32L0xx_HAL_Driver/Src/stm32l0xx_hal_rcc.c **** /* Private typedef -----------------------------------------------------------*/
  94:Drivers/STM32L0xx_HAL_Driver/Src/stm32l0xx_hal_rcc.c **** /* Private define ------------------------------------------------------------*/
  95:Drivers/STM32L0xx_HAL_Driver/Src/stm32l0xx_hal_rcc.c **** /** @defgroup RCC_Private_Constants RCC Private Constants
  96:Drivers/STM32L0xx_HAL_Driver/Src/stm32l0xx_hal_rcc.c ****  * @{
  97:Drivers/STM32L0xx_HAL_Driver/Src/stm32l0xx_hal_rcc.c ****  */
  98:Drivers/STM32L0xx_HAL_Driver/Src/stm32l0xx_hal_rcc.c **** /* Bits position in  in the CFGR register */
  99:Drivers/STM32L0xx_HAL_Driver/Src/stm32l0xx_hal_rcc.c **** #define RCC_CFGR_PLLMUL_BITNUMBER         RCC_CFGR_PLLMUL_Pos
 100:Drivers/STM32L0xx_HAL_Driver/Src/stm32l0xx_hal_rcc.c **** #define RCC_CFGR_PLLDIV_BITNUMBER         RCC_CFGR_PLLDIV_Pos
 101:Drivers/STM32L0xx_HAL_Driver/Src/stm32l0xx_hal_rcc.c **** #define RCC_CFGR_HPRE_BITNUMBER           RCC_CFGR_HPRE_Pos
 102:Drivers/STM32L0xx_HAL_Driver/Src/stm32l0xx_hal_rcc.c **** #define RCC_CFGR_PPRE1_BITNUMBER          RCC_CFGR_PPRE1_Pos
 103:Drivers/STM32L0xx_HAL_Driver/Src/stm32l0xx_hal_rcc.c **** #define RCC_CFGR_PPRE2_BITNUMBER          RCC_CFGR_PPRE2_Pos
 104:Drivers/STM32L0xx_HAL_Driver/Src/stm32l0xx_hal_rcc.c **** /* Bits position in  in the ICSCR register */
 105:Drivers/STM32L0xx_HAL_Driver/Src/stm32l0xx_hal_rcc.c **** #define RCC_ICSCR_MSIRANGE_BITNUMBER      RCC_ICSCR_MSIRANGE_Pos
 106:Drivers/STM32L0xx_HAL_Driver/Src/stm32l0xx_hal_rcc.c **** #define RCC_ICSCR_MSITRIM_BITNUMBER       RCC_ICSCR_MSITRIM_Pos
 107:Drivers/STM32L0xx_HAL_Driver/Src/stm32l0xx_hal_rcc.c **** /**
 108:Drivers/STM32L0xx_HAL_Driver/Src/stm32l0xx_hal_rcc.c ****   * @}
 109:Drivers/STM32L0xx_HAL_Driver/Src/stm32l0xx_hal_rcc.c ****   */
 110:Drivers/STM32L0xx_HAL_Driver/Src/stm32l0xx_hal_rcc.c **** /* Private macro -------------------------------------------------------------*/
 111:Drivers/STM32L0xx_HAL_Driver/Src/stm32l0xx_hal_rcc.c **** /** @defgroup RCC_Private_Macros RCC Private Macros
 112:Drivers/STM32L0xx_HAL_Driver/Src/stm32l0xx_hal_rcc.c ****   * @{
 113:Drivers/STM32L0xx_HAL_Driver/Src/stm32l0xx_hal_rcc.c ****   */
 114:Drivers/STM32L0xx_HAL_Driver/Src/stm32l0xx_hal_rcc.c **** 
 115:Drivers/STM32L0xx_HAL_Driver/Src/stm32l0xx_hal_rcc.c **** #define MCO1_CLK_ENABLE()     __HAL_RCC_GPIOA_CLK_ENABLE()
 116:Drivers/STM32L0xx_HAL_Driver/Src/stm32l0xx_hal_rcc.c **** #define MCO1_GPIO_PORT        GPIOA
 117:Drivers/STM32L0xx_HAL_Driver/Src/stm32l0xx_hal_rcc.c **** #define MCO1_PIN              GPIO_PIN_8
 118:Drivers/STM32L0xx_HAL_Driver/Src/stm32l0xx_hal_rcc.c **** 
 119:Drivers/STM32L0xx_HAL_Driver/Src/stm32l0xx_hal_rcc.c **** #define MCO2_CLK_ENABLE()     __HAL_RCC_GPIOA_CLK_ENABLE()
 120:Drivers/STM32L0xx_HAL_Driver/Src/stm32l0xx_hal_rcc.c **** #define MCO2_GPIO_PORT        GPIOA
 121:Drivers/STM32L0xx_HAL_Driver/Src/stm32l0xx_hal_rcc.c **** #define MCO2_PIN              GPIO_PIN_9
 122:Drivers/STM32L0xx_HAL_Driver/Src/stm32l0xx_hal_rcc.c **** 
 123:Drivers/STM32L0xx_HAL_Driver/Src/stm32l0xx_hal_rcc.c **** #if  defined(STM32L031xx) || defined(STM32L041xx) || defined(STM32L073xx) || defined(STM32L083xx) \
 124:Drivers/STM32L0xx_HAL_Driver/Src/stm32l0xx_hal_rcc.c ****   || defined(STM32L072xx) || defined(STM32L082xx) || defined(STM32L071xx) || defined(STM32L081xx) 
 125:Drivers/STM32L0xx_HAL_Driver/Src/stm32l0xx_hal_rcc.c **** #define MCO3_CLK_ENABLE()     __HAL_RCC_GPIOB_CLK_ENABLE()
 126:Drivers/STM32L0xx_HAL_Driver/Src/stm32l0xx_hal_rcc.c **** #define MCO3_GPIO_PORT        GPIOB
 127:Drivers/STM32L0xx_HAL_Driver/Src/stm32l0xx_hal_rcc.c **** #define MCO3_PIN              GPIO_PIN_13
 128:Drivers/STM32L0xx_HAL_Driver/Src/stm32l0xx_hal_rcc.c **** #endif
 129:Drivers/STM32L0xx_HAL_Driver/Src/stm32l0xx_hal_rcc.c **** 
 130:Drivers/STM32L0xx_HAL_Driver/Src/stm32l0xx_hal_rcc.c **** /**
 131:Drivers/STM32L0xx_HAL_Driver/Src/stm32l0xx_hal_rcc.c ****   * @}
 132:Drivers/STM32L0xx_HAL_Driver/Src/stm32l0xx_hal_rcc.c ****   */
 133:Drivers/STM32L0xx_HAL_Driver/Src/stm32l0xx_hal_rcc.c **** 
 134:Drivers/STM32L0xx_HAL_Driver/Src/stm32l0xx_hal_rcc.c **** /* Private variables ---------------------------------------------------------*/
 135:Drivers/STM32L0xx_HAL_Driver/Src/stm32l0xx_hal_rcc.c **** /** @defgroup RCC_Private_Variables RCC Private Variables
 136:Drivers/STM32L0xx_HAL_Driver/Src/stm32l0xx_hal_rcc.c ****   * @{
 137:Drivers/STM32L0xx_HAL_Driver/Src/stm32l0xx_hal_rcc.c ****   */
 138:Drivers/STM32L0xx_HAL_Driver/Src/stm32l0xx_hal_rcc.c **** extern const uint8_t PLLMulTable[];          /* Defined in CMSIS (system_stm32l0xx.c)*/
 139:Drivers/STM32L0xx_HAL_Driver/Src/stm32l0xx_hal_rcc.c **** /**
 140:Drivers/STM32L0xx_HAL_Driver/Src/stm32l0xx_hal_rcc.c ****   * @}
 141:Drivers/STM32L0xx_HAL_Driver/Src/stm32l0xx_hal_rcc.c ****   */
 142:Drivers/STM32L0xx_HAL_Driver/Src/stm32l0xx_hal_rcc.c **** 
 143:Drivers/STM32L0xx_HAL_Driver/Src/stm32l0xx_hal_rcc.c **** /* Private function prototypes -----------------------------------------------*/
 144:Drivers/STM32L0xx_HAL_Driver/Src/stm32l0xx_hal_rcc.c **** /** @defgroup RCC_Private_Functions RCC Private Functions
 145:Drivers/STM32L0xx_HAL_Driver/Src/stm32l0xx_hal_rcc.c ****   * @{
 146:Drivers/STM32L0xx_HAL_Driver/Src/stm32l0xx_hal_rcc.c ****   */
 147:Drivers/STM32L0xx_HAL_Driver/Src/stm32l0xx_hal_rcc.c **** static HAL_StatusTypeDef RCC_SetFlashLatencyFromMSIRange(uint32_t MSIrange);
 148:Drivers/STM32L0xx_HAL_Driver/Src/stm32l0xx_hal_rcc.c **** /**
ARM GAS  /tmp/ccWNGGuS.s 			page 4


 149:Drivers/STM32L0xx_HAL_Driver/Src/stm32l0xx_hal_rcc.c ****   * @}
 150:Drivers/STM32L0xx_HAL_Driver/Src/stm32l0xx_hal_rcc.c ****   */
 151:Drivers/STM32L0xx_HAL_Driver/Src/stm32l0xx_hal_rcc.c **** 
 152:Drivers/STM32L0xx_HAL_Driver/Src/stm32l0xx_hal_rcc.c **** /* Exported functions ---------------------------------------------------------*/
 153:Drivers/STM32L0xx_HAL_Driver/Src/stm32l0xx_hal_rcc.c **** 
 154:Drivers/STM32L0xx_HAL_Driver/Src/stm32l0xx_hal_rcc.c **** /** @defgroup RCC_Exported_Functions RCC Exported Functions
 155:Drivers/STM32L0xx_HAL_Driver/Src/stm32l0xx_hal_rcc.c ****   * @{
 156:Drivers/STM32L0xx_HAL_Driver/Src/stm32l0xx_hal_rcc.c ****   */
 157:Drivers/STM32L0xx_HAL_Driver/Src/stm32l0xx_hal_rcc.c **** 
 158:Drivers/STM32L0xx_HAL_Driver/Src/stm32l0xx_hal_rcc.c **** /** @defgroup RCC_Exported_Functions_Group1 Initialization and de-initialization functions 
 159:Drivers/STM32L0xx_HAL_Driver/Src/stm32l0xx_hal_rcc.c ****   *  @brief    Initialization and Configuration functions 
 160:Drivers/STM32L0xx_HAL_Driver/Src/stm32l0xx_hal_rcc.c ****   *
 161:Drivers/STM32L0xx_HAL_Driver/Src/stm32l0xx_hal_rcc.c ****   @verbatim    
 162:Drivers/STM32L0xx_HAL_Driver/Src/stm32l0xx_hal_rcc.c ****   ===============================================================================
 163:Drivers/STM32L0xx_HAL_Driver/Src/stm32l0xx_hal_rcc.c ****            ##### Initialization and de-initialization functions #####
 164:Drivers/STM32L0xx_HAL_Driver/Src/stm32l0xx_hal_rcc.c ****   ===============================================================================
 165:Drivers/STM32L0xx_HAL_Driver/Src/stm32l0xx_hal_rcc.c ****     [..]
 166:Drivers/STM32L0xx_HAL_Driver/Src/stm32l0xx_hal_rcc.c ****       This section provides functions allowing to configure the internal/external oscillators
 167:Drivers/STM32L0xx_HAL_Driver/Src/stm32l0xx_hal_rcc.c ****       (MSI, HSE, HSI, LSE, LSI, PLL, CSS and MCO) and the System buses clocks (SYSCLK, AHB, APB1 
 168:Drivers/STM32L0xx_HAL_Driver/Src/stm32l0xx_hal_rcc.c ****       and APB2).
 169:Drivers/STM32L0xx_HAL_Driver/Src/stm32l0xx_hal_rcc.c **** 
 170:Drivers/STM32L0xx_HAL_Driver/Src/stm32l0xx_hal_rcc.c ****     [..] Internal/external clock and PLL configuration
 171:Drivers/STM32L0xx_HAL_Driver/Src/stm32l0xx_hal_rcc.c ****       (#) MSI (Multispeed internal), Seven frequency ranges are available: 65.536 kHz, 
 172:Drivers/STM32L0xx_HAL_Driver/Src/stm32l0xx_hal_rcc.c ****           131.072 kHz, 262.144 kHz, 524.288 kHz, 1.048 MHz, 2.097 MHz (default value) and 4.194 MHz
 173:Drivers/STM32L0xx_HAL_Driver/Src/stm32l0xx_hal_rcc.c **** 
 174:Drivers/STM32L0xx_HAL_Driver/Src/stm32l0xx_hal_rcc.c ****       (#) HSI (high-speed internal), 16 MHz factory-trimmed RC used directly or through
 175:Drivers/STM32L0xx_HAL_Driver/Src/stm32l0xx_hal_rcc.c ****           the PLL as System clock source.
 176:Drivers/STM32L0xx_HAL_Driver/Src/stm32l0xx_hal_rcc.c ****       (#) LSI (low-speed internal), ~37 KHz low consumption RC used as IWDG and/or RTC
 177:Drivers/STM32L0xx_HAL_Driver/Src/stm32l0xx_hal_rcc.c ****           clock source.
 178:Drivers/STM32L0xx_HAL_Driver/Src/stm32l0xx_hal_rcc.c **** 
 179:Drivers/STM32L0xx_HAL_Driver/Src/stm32l0xx_hal_rcc.c ****       (#) HSE (high-speed external), 1 to 24 MHz crystal oscillator used directly or
 180:Drivers/STM32L0xx_HAL_Driver/Src/stm32l0xx_hal_rcc.c ****           through the PLL as System clock source. Can be used also as RTC clock source.
 181:Drivers/STM32L0xx_HAL_Driver/Src/stm32l0xx_hal_rcc.c **** 
 182:Drivers/STM32L0xx_HAL_Driver/Src/stm32l0xx_hal_rcc.c ****       (#) LSE (low-speed external), 32 KHz oscillator used as RTC clock source.   
 183:Drivers/STM32L0xx_HAL_Driver/Src/stm32l0xx_hal_rcc.c **** 
 184:Drivers/STM32L0xx_HAL_Driver/Src/stm32l0xx_hal_rcc.c ****       (#) PLL (clocked by HSI or HSE), featuring different output clocks:
 185:Drivers/STM32L0xx_HAL_Driver/Src/stm32l0xx_hal_rcc.c ****         (++) The first output is used to generate the high speed system clock (up to 32 MHz)
 186:Drivers/STM32L0xx_HAL_Driver/Src/stm32l0xx_hal_rcc.c ****         (++) The second output is used to generate the clock for the USB OTG FS (48 MHz)
 187:Drivers/STM32L0xx_HAL_Driver/Src/stm32l0xx_hal_rcc.c **** 
 188:Drivers/STM32L0xx_HAL_Driver/Src/stm32l0xx_hal_rcc.c ****       (#) CSS (Clock security system), once enable using the macro __HAL_RCC_CSS_ENABLE()
 189:Drivers/STM32L0xx_HAL_Driver/Src/stm32l0xx_hal_rcc.c ****           and if a HSE clock failure occurs(HSE used directly or through PLL as System 
 190:Drivers/STM32L0xx_HAL_Driver/Src/stm32l0xx_hal_rcc.c ****           clock source), the System clocks automatically switched to MSI and an interrupt
 191:Drivers/STM32L0xx_HAL_Driver/Src/stm32l0xx_hal_rcc.c ****           is generated if enabled. The interrupt is linked to the Cortex-M0+ NMI 
 192:Drivers/STM32L0xx_HAL_Driver/Src/stm32l0xx_hal_rcc.c ****           (Non-Maskable Interrupt) exception vector.   
 193:Drivers/STM32L0xx_HAL_Driver/Src/stm32l0xx_hal_rcc.c **** 
 194:Drivers/STM32L0xx_HAL_Driver/Src/stm32l0xx_hal_rcc.c ****       (#) MCO1/MCO2/MCO3 (microcontroller clock output), used to output SYSCLK, HSI, LSI, MSI, LSE,
 195:Drivers/STM32L0xx_HAL_Driver/Src/stm32l0xx_hal_rcc.c ****           HSE, HSI48 or PLL clock (through a configurable prescaler) on PA8/PA9/PB13 pins.
 196:Drivers/STM32L0xx_HAL_Driver/Src/stm32l0xx_hal_rcc.c **** 
 197:Drivers/STM32L0xx_HAL_Driver/Src/stm32l0xx_hal_rcc.c ****     [..] System, AHB and APB buses clocks configuration
 198:Drivers/STM32L0xx_HAL_Driver/Src/stm32l0xx_hal_rcc.c ****       (#) Several clock sources can be used to drive the System clock (SYSCLK): MSI, HSI,
 199:Drivers/STM32L0xx_HAL_Driver/Src/stm32l0xx_hal_rcc.c ****           HSE and PLL.
 200:Drivers/STM32L0xx_HAL_Driver/Src/stm32l0xx_hal_rcc.c ****           The AHB clock (HCLK) is derived from System clock through configurable
 201:Drivers/STM32L0xx_HAL_Driver/Src/stm32l0xx_hal_rcc.c ****           prescaler and used to clock the CPU, memory and peripherals mapped
 202:Drivers/STM32L0xx_HAL_Driver/Src/stm32l0xx_hal_rcc.c ****           on AHB bus (DMA, GPIO...). APB1 (PCLK1) and APB2 (PCLK2) clocks are derived
 203:Drivers/STM32L0xx_HAL_Driver/Src/stm32l0xx_hal_rcc.c ****           from AHB clock through configurable prescalers and used to clock
 204:Drivers/STM32L0xx_HAL_Driver/Src/stm32l0xx_hal_rcc.c ****           the peripherals mapped on these buses. You can use
 205:Drivers/STM32L0xx_HAL_Driver/Src/stm32l0xx_hal_rcc.c ****           "@ref HAL_RCC_GetSysClockFreq()" function to retrieve the frequencies of these clocks.
ARM GAS  /tmp/ccWNGGuS.s 			page 5


 206:Drivers/STM32L0xx_HAL_Driver/Src/stm32l0xx_hal_rcc.c **** 
 207:Drivers/STM32L0xx_HAL_Driver/Src/stm32l0xx_hal_rcc.c ****       -@- All the peripheral clocks are derived from the System clock (SYSCLK) except:
 208:Drivers/STM32L0xx_HAL_Driver/Src/stm32l0xx_hal_rcc.c ****           (+@) RTC: RTC clock can be derived either from the LSI, LSE or HSE clock
 209:Drivers/STM32L0xx_HAL_Driver/Src/stm32l0xx_hal_rcc.c ****               divided by 2 to 16. You have to use @ref __HAL_RCC_RTC_CONFIG() and @ref __HAL_RCC_RT
 210:Drivers/STM32L0xx_HAL_Driver/Src/stm32l0xx_hal_rcc.c ****               macros to configure this clock. 
 211:Drivers/STM32L0xx_HAL_Driver/Src/stm32l0xx_hal_rcc.c ****           (+@) LCD: LCD clock can be derived either from the LSI, LSE or HSE clock
 212:Drivers/STM32L0xx_HAL_Driver/Src/stm32l0xx_hal_rcc.c ****               divided by 2 to 16. You have to use @ref __HAL_RCC_LCD_CONFIG()
 213:Drivers/STM32L0xx_HAL_Driver/Src/stm32l0xx_hal_rcc.c ****               macros to configure this clock. 
 214:Drivers/STM32L0xx_HAL_Driver/Src/stm32l0xx_hal_rcc.c ****           (+@) USB FS and RNG: USB FS require a frequency equal to 48 MHz to work correctly. 
 215:Drivers/STM32L0xx_HAL_Driver/Src/stm32l0xx_hal_rcc.c ****                This clock is derived of the main PLL through PLL Multiplier or HSI48 RC oscillator.
 216:Drivers/STM32L0xx_HAL_Driver/Src/stm32l0xx_hal_rcc.c **** 
 217:Drivers/STM32L0xx_HAL_Driver/Src/stm32l0xx_hal_rcc.c ****           (+@) IWDG clock which is always the LSI clock.
 218:Drivers/STM32L0xx_HAL_Driver/Src/stm32l0xx_hal_rcc.c **** 
 219:Drivers/STM32L0xx_HAL_Driver/Src/stm32l0xx_hal_rcc.c ****       (#) The maximum frequency of the SYSCLK and HCLK is 32 MHz, PCLK2 32 MHz 
 220:Drivers/STM32L0xx_HAL_Driver/Src/stm32l0xx_hal_rcc.c ****           and PCLK1 32 MHz. Depending on the device voltage range, the maximum 
 221:Drivers/STM32L0xx_HAL_Driver/Src/stm32l0xx_hal_rcc.c ****           frequency should be adapted accordingly.
 222:Drivers/STM32L0xx_HAL_Driver/Src/stm32l0xx_hal_rcc.c ****   @endverbatim
 223:Drivers/STM32L0xx_HAL_Driver/Src/stm32l0xx_hal_rcc.c ****   * @{
 224:Drivers/STM32L0xx_HAL_Driver/Src/stm32l0xx_hal_rcc.c ****   */
 225:Drivers/STM32L0xx_HAL_Driver/Src/stm32l0xx_hal_rcc.c ****   
 226:Drivers/STM32L0xx_HAL_Driver/Src/stm32l0xx_hal_rcc.c **** /*
 227:Drivers/STM32L0xx_HAL_Driver/Src/stm32l0xx_hal_rcc.c ****   Additional consideration on the HCLK based on Latency settings:
 228:Drivers/STM32L0xx_HAL_Driver/Src/stm32l0xx_hal_rcc.c ****   +----------------------------------------------------------------------+     
 229:Drivers/STM32L0xx_HAL_Driver/Src/stm32l0xx_hal_rcc.c ****   | Latency       |                HCLK clock frequency (MHz)            |
 230:Drivers/STM32L0xx_HAL_Driver/Src/stm32l0xx_hal_rcc.c ****   |               |------------------------------------------------------|     
 231:Drivers/STM32L0xx_HAL_Driver/Src/stm32l0xx_hal_rcc.c ****   |               | voltage range 1  | voltage range 2 | voltage range 3 |
 232:Drivers/STM32L0xx_HAL_Driver/Src/stm32l0xx_hal_rcc.c ****   |               |      1.8 V       |     1.5 V       |      1.2 V      |
 233:Drivers/STM32L0xx_HAL_Driver/Src/stm32l0xx_hal_rcc.c ****   |---------------|------------------|-----------------|-----------------|              
 234:Drivers/STM32L0xx_HAL_Driver/Src/stm32l0xx_hal_rcc.c ****   |0WS(1CPU cycle)| 0 < HCLK <= 16   | 0 < HCLK <= 8   | 0 < HCLK <= 2   |
 235:Drivers/STM32L0xx_HAL_Driver/Src/stm32l0xx_hal_rcc.c ****   |---------------|------------------|-----------------|-----------------| 
 236:Drivers/STM32L0xx_HAL_Driver/Src/stm32l0xx_hal_rcc.c ****   |1WS(2CPU cycle)| 16 < HCLK <= 32  | 8 < HCLK <= 16  | 2 < HCLK <= 4   | 
 237:Drivers/STM32L0xx_HAL_Driver/Src/stm32l0xx_hal_rcc.c ****   +----------------------------------------------------------------------+     
 238:Drivers/STM32L0xx_HAL_Driver/Src/stm32l0xx_hal_rcc.c **** 
 239:Drivers/STM32L0xx_HAL_Driver/Src/stm32l0xx_hal_rcc.c ****   The following table gives the different clock source frequencies depending on the product
 240:Drivers/STM32L0xx_HAL_Driver/Src/stm32l0xx_hal_rcc.c ****   voltage range:
 241:Drivers/STM32L0xx_HAL_Driver/Src/stm32l0xx_hal_rcc.c ****   +------------------------------------------------------------------------------------------+     
 242:Drivers/STM32L0xx_HAL_Driver/Src/stm32l0xx_hal_rcc.c ****   | Product voltage |                    Clock frequency                                     |
 243:Drivers/STM32L0xx_HAL_Driver/Src/stm32l0xx_hal_rcc.c ****   |                 |------------------|-----------------------------|-----------------------|     
 244:Drivers/STM32L0xx_HAL_Driver/Src/stm32l0xx_hal_rcc.c ****   |      range      |   MSI   |   HSI  |              HSE            |          PLL          |
 245:Drivers/STM32L0xx_HAL_Driver/Src/stm32l0xx_hal_rcc.c ****   |-----------------|---------|--------|-----------------------------|-----------------------|     
 246:Drivers/STM32L0xx_HAL_Driver/Src/stm32l0xx_hal_rcc.c ****   | Range 1 (1.8 V) | 4.2 MHz | 16 MHz | HSE 32 MHz (external clock) |         32 MHz        |
 247:Drivers/STM32L0xx_HAL_Driver/Src/stm32l0xx_hal_rcc.c ****   |                 |         |        |      or 24 MHz (crystal)    | (PLLVCO max = 96 MHz) |
 248:Drivers/STM32L0xx_HAL_Driver/Src/stm32l0xx_hal_rcc.c ****   |-----------------|---------|--------|-----------------------------|-----------------------|     
 249:Drivers/STM32L0xx_HAL_Driver/Src/stm32l0xx_hal_rcc.c ****   | Range 2 (1.5 V) | 4.2 MHz | 16 MHz |         16 MHz              |         16 MHz        |
 250:Drivers/STM32L0xx_HAL_Driver/Src/stm32l0xx_hal_rcc.c ****   |                 |         |        |                             | (PLLVCO max = 48 MHz) |
 251:Drivers/STM32L0xx_HAL_Driver/Src/stm32l0xx_hal_rcc.c ****   |-----------------|---------|--------|-----------------------------|-----------------------|     
 252:Drivers/STM32L0xx_HAL_Driver/Src/stm32l0xx_hal_rcc.c ****   | Range 3 (1.2 V) | 4.2 MHz |   NA   |         8 MHz               |           4 MHz       |
 253:Drivers/STM32L0xx_HAL_Driver/Src/stm32l0xx_hal_rcc.c ****   |                 |         |        |                             | (PLLVCO max = 24 MHz) |
 254:Drivers/STM32L0xx_HAL_Driver/Src/stm32l0xx_hal_rcc.c ****   +------------------------------------------------------------------------------------------+     
 255:Drivers/STM32L0xx_HAL_Driver/Src/stm32l0xx_hal_rcc.c ****   */
 256:Drivers/STM32L0xx_HAL_Driver/Src/stm32l0xx_hal_rcc.c **** 
 257:Drivers/STM32L0xx_HAL_Driver/Src/stm32l0xx_hal_rcc.c **** /**
 258:Drivers/STM32L0xx_HAL_Driver/Src/stm32l0xx_hal_rcc.c ****   * @brief  Resets the RCC clock configuration to the default reset state.
 259:Drivers/STM32L0xx_HAL_Driver/Src/stm32l0xx_hal_rcc.c ****   * @note   The default reset state of the clock configuration is given below:
 260:Drivers/STM32L0xx_HAL_Driver/Src/stm32l0xx_hal_rcc.c ****   *            - MSI ON and used as system clock source
 261:Drivers/STM32L0xx_HAL_Driver/Src/stm32l0xx_hal_rcc.c ****   *            - HSI, HSE and PLL  OFF
 262:Drivers/STM32L0xx_HAL_Driver/Src/stm32l0xx_hal_rcc.c ****   *            - AHB, APB1 and APB2 prescaler set to 1.
ARM GAS  /tmp/ccWNGGuS.s 			page 6


 263:Drivers/STM32L0xx_HAL_Driver/Src/stm32l0xx_hal_rcc.c ****   *            - CSS and MCO1/MCO2/MCO3 OFF
 264:Drivers/STM32L0xx_HAL_Driver/Src/stm32l0xx_hal_rcc.c ****   *            - All interrupts disabled
 265:Drivers/STM32L0xx_HAL_Driver/Src/stm32l0xx_hal_rcc.c ****   * @note   This function does not modify the configuration of the
 266:Drivers/STM32L0xx_HAL_Driver/Src/stm32l0xx_hal_rcc.c ****   *            - Peripheral clocks
 267:Drivers/STM32L0xx_HAL_Driver/Src/stm32l0xx_hal_rcc.c ****   *            - LSI, LSE and RTC clocks
 268:Drivers/STM32L0xx_HAL_Driver/Src/stm32l0xx_hal_rcc.c ****   *            - HSI48 clock
 269:Drivers/STM32L0xx_HAL_Driver/Src/stm32l0xx_hal_rcc.c ****   * @retval None
 270:Drivers/STM32L0xx_HAL_Driver/Src/stm32l0xx_hal_rcc.c ****   */
 271:Drivers/STM32L0xx_HAL_Driver/Src/stm32l0xx_hal_rcc.c **** void HAL_RCC_DeInit(void)
 272:Drivers/STM32L0xx_HAL_Driver/Src/stm32l0xx_hal_rcc.c **** {
 273:Drivers/STM32L0xx_HAL_Driver/Src/stm32l0xx_hal_rcc.c ****   __IO uint32_t tmpreg;
 274:Drivers/STM32L0xx_HAL_Driver/Src/stm32l0xx_hal_rcc.c **** 
 275:Drivers/STM32L0xx_HAL_Driver/Src/stm32l0xx_hal_rcc.c ****   /* Set MSION bit */
 276:Drivers/STM32L0xx_HAL_Driver/Src/stm32l0xx_hal_rcc.c ****   SET_BIT(RCC->CR, RCC_CR_MSION);
 277:Drivers/STM32L0xx_HAL_Driver/Src/stm32l0xx_hal_rcc.c ****   
 278:Drivers/STM32L0xx_HAL_Driver/Src/stm32l0xx_hal_rcc.c ****   /* Switch SYSCLK to MSI*/
 279:Drivers/STM32L0xx_HAL_Driver/Src/stm32l0xx_hal_rcc.c ****   CLEAR_BIT(RCC->CFGR, RCC_CFGR_SW);
 280:Drivers/STM32L0xx_HAL_Driver/Src/stm32l0xx_hal_rcc.c **** 
 281:Drivers/STM32L0xx_HAL_Driver/Src/stm32l0xx_hal_rcc.c ****   /* Reset HSE, HSI, CSS, PLL */
 282:Drivers/STM32L0xx_HAL_Driver/Src/stm32l0xx_hal_rcc.c **** #if defined(RCC_CR_CSSHSEON) && defined(RCC_CR_HSIOUTEN)
 283:Drivers/STM32L0xx_HAL_Driver/Src/stm32l0xx_hal_rcc.c ****   CLEAR_BIT(RCC->CR, RCC_CR_HSION| RCC_CR_HSIKERON| RCC_CR_HSIDIVEN | RCC_CR_HSIOUTEN | \
 284:Drivers/STM32L0xx_HAL_Driver/Src/stm32l0xx_hal_rcc.c ****                      RCC_CR_HSEON | RCC_CR_CSSHSEON | RCC_CR_PLLON); 
 285:Drivers/STM32L0xx_HAL_Driver/Src/stm32l0xx_hal_rcc.c **** #elif !defined(RCC_CR_CSSHSEON) && defined(RCC_CR_HSIOUTEN)
 286:Drivers/STM32L0xx_HAL_Driver/Src/stm32l0xx_hal_rcc.c ****   CLEAR_BIT(RCC->CR, RCC_CR_HSION| RCC_CR_HSIKERON| RCC_CR_HSIDIVEN | RCC_CR_HSIOUTEN | \
 287:Drivers/STM32L0xx_HAL_Driver/Src/stm32l0xx_hal_rcc.c ****                      RCC_CR_HSEON | RCC_CR_PLLON);    
 288:Drivers/STM32L0xx_HAL_Driver/Src/stm32l0xx_hal_rcc.c **** #elif defined(RCC_CR_CSSHSEON) && !defined(RCC_CR_HSIOUTEN)
 289:Drivers/STM32L0xx_HAL_Driver/Src/stm32l0xx_hal_rcc.c ****   CLEAR_BIT(RCC->CR, RCC_CR_HSION| RCC_CR_HSIKERON| RCC_CR_HSIDIVEN | \
 290:Drivers/STM32L0xx_HAL_Driver/Src/stm32l0xx_hal_rcc.c ****                      RCC_CR_HSEON | RCC_CR_CSSHSEON | RCC_CR_PLLON); 
 291:Drivers/STM32L0xx_HAL_Driver/Src/stm32l0xx_hal_rcc.c **** #endif
 292:Drivers/STM32L0xx_HAL_Driver/Src/stm32l0xx_hal_rcc.c **** 
 293:Drivers/STM32L0xx_HAL_Driver/Src/stm32l0xx_hal_rcc.c ****   /* Delay after an RCC peripheral clock */ \
 294:Drivers/STM32L0xx_HAL_Driver/Src/stm32l0xx_hal_rcc.c ****   tmpreg = READ_BIT(RCC->CR, RCC_CR_HSEON);      \
 295:Drivers/STM32L0xx_HAL_Driver/Src/stm32l0xx_hal_rcc.c ****   UNUSED(tmpreg); 
 296:Drivers/STM32L0xx_HAL_Driver/Src/stm32l0xx_hal_rcc.c **** 
 297:Drivers/STM32L0xx_HAL_Driver/Src/stm32l0xx_hal_rcc.c ****   /* Reset HSEBYP bit */
 298:Drivers/STM32L0xx_HAL_Driver/Src/stm32l0xx_hal_rcc.c ****   CLEAR_BIT(RCC->CR, RCC_CR_HSEBYP);
 299:Drivers/STM32L0xx_HAL_Driver/Src/stm32l0xx_hal_rcc.c ****   
 300:Drivers/STM32L0xx_HAL_Driver/Src/stm32l0xx_hal_rcc.c ****   /* Reset CFGR register */
 301:Drivers/STM32L0xx_HAL_Driver/Src/stm32l0xx_hal_rcc.c ****   CLEAR_REG(RCC->CFGR);
 302:Drivers/STM32L0xx_HAL_Driver/Src/stm32l0xx_hal_rcc.c ****   
 303:Drivers/STM32L0xx_HAL_Driver/Src/stm32l0xx_hal_rcc.c ****   /* Set MSIClockRange & MSITRIM[4:0] bits to the reset value */
 304:Drivers/STM32L0xx_HAL_Driver/Src/stm32l0xx_hal_rcc.c ****   MODIFY_REG(RCC->ICSCR, (RCC_ICSCR_MSIRANGE | RCC_ICSCR_MSITRIM), (((uint32_t)0 << RCC_ICSCR_MSITR
 305:Drivers/STM32L0xx_HAL_Driver/Src/stm32l0xx_hal_rcc.c ****   
 306:Drivers/STM32L0xx_HAL_Driver/Src/stm32l0xx_hal_rcc.c ****   /* Set HSITRIM bits to the reset value */
 307:Drivers/STM32L0xx_HAL_Driver/Src/stm32l0xx_hal_rcc.c ****   MODIFY_REG(RCC->ICSCR, RCC_ICSCR_HSITRIM, ((uint32_t)0x10 << 8));
 308:Drivers/STM32L0xx_HAL_Driver/Src/stm32l0xx_hal_rcc.c ****   
 309:Drivers/STM32L0xx_HAL_Driver/Src/stm32l0xx_hal_rcc.c ****   /* Disable all interrupts */
 310:Drivers/STM32L0xx_HAL_Driver/Src/stm32l0xx_hal_rcc.c ****   CLEAR_REG(RCC->CIER); 
 311:Drivers/STM32L0xx_HAL_Driver/Src/stm32l0xx_hal_rcc.c **** 
 312:Drivers/STM32L0xx_HAL_Driver/Src/stm32l0xx_hal_rcc.c ****   /* Update the SystemCoreClock global variable */
 313:Drivers/STM32L0xx_HAL_Driver/Src/stm32l0xx_hal_rcc.c ****   SystemCoreClock = MSI_VALUE;
 314:Drivers/STM32L0xx_HAL_Driver/Src/stm32l0xx_hal_rcc.c **** }
 315:Drivers/STM32L0xx_HAL_Driver/Src/stm32l0xx_hal_rcc.c **** 
 316:Drivers/STM32L0xx_HAL_Driver/Src/stm32l0xx_hal_rcc.c **** /**
 317:Drivers/STM32L0xx_HAL_Driver/Src/stm32l0xx_hal_rcc.c ****   * @brief  Initializes the RCC Oscillators according to the specified parameters in the
 318:Drivers/STM32L0xx_HAL_Driver/Src/stm32l0xx_hal_rcc.c ****   *         RCC_OscInitTypeDef.
 319:Drivers/STM32L0xx_HAL_Driver/Src/stm32l0xx_hal_rcc.c ****   * @param  RCC_OscInitStruct pointer to an RCC_OscInitTypeDef structure that
ARM GAS  /tmp/ccWNGGuS.s 			page 7


 320:Drivers/STM32L0xx_HAL_Driver/Src/stm32l0xx_hal_rcc.c ****   *         contains the configuration information for the RCC Oscillators.
 321:Drivers/STM32L0xx_HAL_Driver/Src/stm32l0xx_hal_rcc.c ****   * @note   The PLL is not disabled when used as system clock.
 322:Drivers/STM32L0xx_HAL_Driver/Src/stm32l0xx_hal_rcc.c ****   * @note   Transitions LSE Bypass to LSE On and LSE On to LSE Bypass are not
 323:Drivers/STM32L0xx_HAL_Driver/Src/stm32l0xx_hal_rcc.c ****   *         supported by this macro. User should request a transition to LSE Off
 324:Drivers/STM32L0xx_HAL_Driver/Src/stm32l0xx_hal_rcc.c ****   *         first and then LSE On or LSE Bypass.
 325:Drivers/STM32L0xx_HAL_Driver/Src/stm32l0xx_hal_rcc.c ****   * @note   Transition HSE Bypass to HSE On and HSE On to HSE Bypass are not
 326:Drivers/STM32L0xx_HAL_Driver/Src/stm32l0xx_hal_rcc.c ****   *         supported by this macro. User should request a transition to HSE Off
 327:Drivers/STM32L0xx_HAL_Driver/Src/stm32l0xx_hal_rcc.c ****   *         first and then HSE On or HSE Bypass.
 328:Drivers/STM32L0xx_HAL_Driver/Src/stm32l0xx_hal_rcc.c ****   * @retval HAL status
 329:Drivers/STM32L0xx_HAL_Driver/Src/stm32l0xx_hal_rcc.c ****   */
 330:Drivers/STM32L0xx_HAL_Driver/Src/stm32l0xx_hal_rcc.c **** HAL_StatusTypeDef HAL_RCC_OscConfig(RCC_OscInitTypeDef  *RCC_OscInitStruct)
 331:Drivers/STM32L0xx_HAL_Driver/Src/stm32l0xx_hal_rcc.c **** {
 332:Drivers/STM32L0xx_HAL_Driver/Src/stm32l0xx_hal_rcc.c ****    uint32_t tickstart = 0U;
 333:Drivers/STM32L0xx_HAL_Driver/Src/stm32l0xx_hal_rcc.c ****   
 334:Drivers/STM32L0xx_HAL_Driver/Src/stm32l0xx_hal_rcc.c ****   /* Check the parameters */
 335:Drivers/STM32L0xx_HAL_Driver/Src/stm32l0xx_hal_rcc.c ****   assert_param(RCC_OscInitStruct != NULL);
 336:Drivers/STM32L0xx_HAL_Driver/Src/stm32l0xx_hal_rcc.c ****   assert_param(IS_RCC_OSCILLATORTYPE(RCC_OscInitStruct->OscillatorType));
 337:Drivers/STM32L0xx_HAL_Driver/Src/stm32l0xx_hal_rcc.c **** 
 338:Drivers/STM32L0xx_HAL_Driver/Src/stm32l0xx_hal_rcc.c ****   /*------------------------------- HSE Configuration ------------------------*/ 
 339:Drivers/STM32L0xx_HAL_Driver/Src/stm32l0xx_hal_rcc.c ****   if(((RCC_OscInitStruct->OscillatorType) & RCC_OSCILLATORTYPE_HSE) == RCC_OSCILLATORTYPE_HSE)
 340:Drivers/STM32L0xx_HAL_Driver/Src/stm32l0xx_hal_rcc.c ****   {
 341:Drivers/STM32L0xx_HAL_Driver/Src/stm32l0xx_hal_rcc.c ****     /* Check the parameters */
 342:Drivers/STM32L0xx_HAL_Driver/Src/stm32l0xx_hal_rcc.c ****     assert_param(IS_RCC_HSE(RCC_OscInitStruct->HSEState));
 343:Drivers/STM32L0xx_HAL_Driver/Src/stm32l0xx_hal_rcc.c **** 
 344:Drivers/STM32L0xx_HAL_Driver/Src/stm32l0xx_hal_rcc.c ****     /* When the HSE is used as system clock or clock source for PLL in these cases it is not allowe
 345:Drivers/STM32L0xx_HAL_Driver/Src/stm32l0xx_hal_rcc.c ****     if((__HAL_RCC_GET_SYSCLK_SOURCE() == RCC_SYSCLKSOURCE_STATUS_HSE) 
 346:Drivers/STM32L0xx_HAL_Driver/Src/stm32l0xx_hal_rcc.c ****        || ((__HAL_RCC_GET_SYSCLK_SOURCE() == RCC_SYSCLKSOURCE_STATUS_PLLCLK) && (__HAL_RCC_GET_PLL_
 347:Drivers/STM32L0xx_HAL_Driver/Src/stm32l0xx_hal_rcc.c ****     {
 348:Drivers/STM32L0xx_HAL_Driver/Src/stm32l0xx_hal_rcc.c ****       if((__HAL_RCC_GET_FLAG(RCC_FLAG_HSERDY) != RESET) && (RCC_OscInitStruct->HSEState == RCC_HSE_
 349:Drivers/STM32L0xx_HAL_Driver/Src/stm32l0xx_hal_rcc.c ****       {
 350:Drivers/STM32L0xx_HAL_Driver/Src/stm32l0xx_hal_rcc.c ****         return HAL_ERROR;
 351:Drivers/STM32L0xx_HAL_Driver/Src/stm32l0xx_hal_rcc.c ****       }
 352:Drivers/STM32L0xx_HAL_Driver/Src/stm32l0xx_hal_rcc.c ****     }
 353:Drivers/STM32L0xx_HAL_Driver/Src/stm32l0xx_hal_rcc.c ****     else
 354:Drivers/STM32L0xx_HAL_Driver/Src/stm32l0xx_hal_rcc.c ****     {
 355:Drivers/STM32L0xx_HAL_Driver/Src/stm32l0xx_hal_rcc.c ****       /* Set the new HSE configuration ---------------------------------------*/
 356:Drivers/STM32L0xx_HAL_Driver/Src/stm32l0xx_hal_rcc.c ****       __HAL_RCC_HSE_CONFIG(RCC_OscInitStruct->HSEState);
 357:Drivers/STM32L0xx_HAL_Driver/Src/stm32l0xx_hal_rcc.c ****       
 358:Drivers/STM32L0xx_HAL_Driver/Src/stm32l0xx_hal_rcc.c **** 
 359:Drivers/STM32L0xx_HAL_Driver/Src/stm32l0xx_hal_rcc.c ****        /* Check the HSE State */
 360:Drivers/STM32L0xx_HAL_Driver/Src/stm32l0xx_hal_rcc.c ****       if(RCC_OscInitStruct->HSEState != RCC_HSE_OFF)
 361:Drivers/STM32L0xx_HAL_Driver/Src/stm32l0xx_hal_rcc.c ****       {
 362:Drivers/STM32L0xx_HAL_Driver/Src/stm32l0xx_hal_rcc.c ****         /* Get Start Tick */
 363:Drivers/STM32L0xx_HAL_Driver/Src/stm32l0xx_hal_rcc.c ****         tickstart = HAL_GetTick();
 364:Drivers/STM32L0xx_HAL_Driver/Src/stm32l0xx_hal_rcc.c ****         
 365:Drivers/STM32L0xx_HAL_Driver/Src/stm32l0xx_hal_rcc.c ****         /* Wait till HSE is ready */
 366:Drivers/STM32L0xx_HAL_Driver/Src/stm32l0xx_hal_rcc.c ****         while(__HAL_RCC_GET_FLAG(RCC_FLAG_HSERDY) == RESET)
 367:Drivers/STM32L0xx_HAL_Driver/Src/stm32l0xx_hal_rcc.c ****         {
 368:Drivers/STM32L0xx_HAL_Driver/Src/stm32l0xx_hal_rcc.c ****           if((HAL_GetTick() - tickstart ) > HSE_TIMEOUT_VALUE)
 369:Drivers/STM32L0xx_HAL_Driver/Src/stm32l0xx_hal_rcc.c ****           {
 370:Drivers/STM32L0xx_HAL_Driver/Src/stm32l0xx_hal_rcc.c ****             return HAL_TIMEOUT;
 371:Drivers/STM32L0xx_HAL_Driver/Src/stm32l0xx_hal_rcc.c ****           }
 372:Drivers/STM32L0xx_HAL_Driver/Src/stm32l0xx_hal_rcc.c ****         }
 373:Drivers/STM32L0xx_HAL_Driver/Src/stm32l0xx_hal_rcc.c ****       }
 374:Drivers/STM32L0xx_HAL_Driver/Src/stm32l0xx_hal_rcc.c ****       else
 375:Drivers/STM32L0xx_HAL_Driver/Src/stm32l0xx_hal_rcc.c ****       {
 376:Drivers/STM32L0xx_HAL_Driver/Src/stm32l0xx_hal_rcc.c ****         /* Get Start Tick */
ARM GAS  /tmp/ccWNGGuS.s 			page 8


 377:Drivers/STM32L0xx_HAL_Driver/Src/stm32l0xx_hal_rcc.c ****         tickstart = HAL_GetTick();
 378:Drivers/STM32L0xx_HAL_Driver/Src/stm32l0xx_hal_rcc.c ****         
 379:Drivers/STM32L0xx_HAL_Driver/Src/stm32l0xx_hal_rcc.c ****         /* Wait till HSE is disabled */
 380:Drivers/STM32L0xx_HAL_Driver/Src/stm32l0xx_hal_rcc.c ****         while(__HAL_RCC_GET_FLAG(RCC_FLAG_HSERDY) != RESET)
 381:Drivers/STM32L0xx_HAL_Driver/Src/stm32l0xx_hal_rcc.c ****         {
 382:Drivers/STM32L0xx_HAL_Driver/Src/stm32l0xx_hal_rcc.c ****            if((HAL_GetTick() - tickstart ) > HSE_TIMEOUT_VALUE)
 383:Drivers/STM32L0xx_HAL_Driver/Src/stm32l0xx_hal_rcc.c ****           {
 384:Drivers/STM32L0xx_HAL_Driver/Src/stm32l0xx_hal_rcc.c ****             return HAL_TIMEOUT;
 385:Drivers/STM32L0xx_HAL_Driver/Src/stm32l0xx_hal_rcc.c ****           }
 386:Drivers/STM32L0xx_HAL_Driver/Src/stm32l0xx_hal_rcc.c ****         }
 387:Drivers/STM32L0xx_HAL_Driver/Src/stm32l0xx_hal_rcc.c ****       }
 388:Drivers/STM32L0xx_HAL_Driver/Src/stm32l0xx_hal_rcc.c ****     }
 389:Drivers/STM32L0xx_HAL_Driver/Src/stm32l0xx_hal_rcc.c ****   }
 390:Drivers/STM32L0xx_HAL_Driver/Src/stm32l0xx_hal_rcc.c ****   /*----------------------------- HSI Configuration --------------------------*/ 
 391:Drivers/STM32L0xx_HAL_Driver/Src/stm32l0xx_hal_rcc.c ****   if(((RCC_OscInitStruct->OscillatorType) & RCC_OSCILLATORTYPE_HSI) == RCC_OSCILLATORTYPE_HSI)
 392:Drivers/STM32L0xx_HAL_Driver/Src/stm32l0xx_hal_rcc.c ****   {
 393:Drivers/STM32L0xx_HAL_Driver/Src/stm32l0xx_hal_rcc.c ****     /* Check the parameters */
 394:Drivers/STM32L0xx_HAL_Driver/Src/stm32l0xx_hal_rcc.c ****     assert_param(IS_RCC_HSI(RCC_OscInitStruct->HSIState));
 395:Drivers/STM32L0xx_HAL_Driver/Src/stm32l0xx_hal_rcc.c ****     assert_param(IS_RCC_CALIBRATION_VALUE(RCC_OscInitStruct->HSICalibrationValue));
 396:Drivers/STM32L0xx_HAL_Driver/Src/stm32l0xx_hal_rcc.c ****     
 397:Drivers/STM32L0xx_HAL_Driver/Src/stm32l0xx_hal_rcc.c ****     /* Check if HSI is used as system clock or as PLL source when PLL is selected as system clock *
 398:Drivers/STM32L0xx_HAL_Driver/Src/stm32l0xx_hal_rcc.c ****     if((__HAL_RCC_GET_SYSCLK_SOURCE() == RCC_SYSCLKSOURCE_STATUS_HSI) 
 399:Drivers/STM32L0xx_HAL_Driver/Src/stm32l0xx_hal_rcc.c ****        || ((__HAL_RCC_GET_SYSCLK_SOURCE() == RCC_SYSCLKSOURCE_STATUS_PLLCLK) && (__HAL_RCC_GET_PLL_
 400:Drivers/STM32L0xx_HAL_Driver/Src/stm32l0xx_hal_rcc.c ****     {
 401:Drivers/STM32L0xx_HAL_Driver/Src/stm32l0xx_hal_rcc.c ****       /* When HSI is used as system clock it will not disabled */
 402:Drivers/STM32L0xx_HAL_Driver/Src/stm32l0xx_hal_rcc.c ****       if((__HAL_RCC_GET_FLAG(RCC_FLAG_HSIRDY) != RESET) && (RCC_OscInitStruct->HSIState != RCC_HSI_
 403:Drivers/STM32L0xx_HAL_Driver/Src/stm32l0xx_hal_rcc.c ****       {
 404:Drivers/STM32L0xx_HAL_Driver/Src/stm32l0xx_hal_rcc.c ****         return HAL_ERROR;
 405:Drivers/STM32L0xx_HAL_Driver/Src/stm32l0xx_hal_rcc.c ****       }
 406:Drivers/STM32L0xx_HAL_Driver/Src/stm32l0xx_hal_rcc.c ****       /* Otherwise, just the calibration is allowed */
 407:Drivers/STM32L0xx_HAL_Driver/Src/stm32l0xx_hal_rcc.c ****       else
 408:Drivers/STM32L0xx_HAL_Driver/Src/stm32l0xx_hal_rcc.c ****       {
 409:Drivers/STM32L0xx_HAL_Driver/Src/stm32l0xx_hal_rcc.c ****         /* Adjusts the Internal High Speed oscillator (HSI) calibration value.*/
 410:Drivers/STM32L0xx_HAL_Driver/Src/stm32l0xx_hal_rcc.c ****         __HAL_RCC_HSI_CALIBRATIONVALUE_ADJUST(RCC_OscInitStruct->HSICalibrationValue);
 411:Drivers/STM32L0xx_HAL_Driver/Src/stm32l0xx_hal_rcc.c ****       }
 412:Drivers/STM32L0xx_HAL_Driver/Src/stm32l0xx_hal_rcc.c ****     }
 413:Drivers/STM32L0xx_HAL_Driver/Src/stm32l0xx_hal_rcc.c ****     else
 414:Drivers/STM32L0xx_HAL_Driver/Src/stm32l0xx_hal_rcc.c ****     {
 415:Drivers/STM32L0xx_HAL_Driver/Src/stm32l0xx_hal_rcc.c ****       /* Check the HSI State */
 416:Drivers/STM32L0xx_HAL_Driver/Src/stm32l0xx_hal_rcc.c ****       if(RCC_OscInitStruct->HSIState != RCC_HSI_OFF)
 417:Drivers/STM32L0xx_HAL_Driver/Src/stm32l0xx_hal_rcc.c ****       {
 418:Drivers/STM32L0xx_HAL_Driver/Src/stm32l0xx_hal_rcc.c ****         /* Enable the Internal High Speed oscillator (HSI or HSIdiv4) */
 419:Drivers/STM32L0xx_HAL_Driver/Src/stm32l0xx_hal_rcc.c ****         __HAL_RCC_HSI_CONFIG(RCC_OscInitStruct->HSIState);
 420:Drivers/STM32L0xx_HAL_Driver/Src/stm32l0xx_hal_rcc.c ****         
 421:Drivers/STM32L0xx_HAL_Driver/Src/stm32l0xx_hal_rcc.c ****         /* Get Start Tick */
 422:Drivers/STM32L0xx_HAL_Driver/Src/stm32l0xx_hal_rcc.c ****         tickstart = HAL_GetTick();
 423:Drivers/STM32L0xx_HAL_Driver/Src/stm32l0xx_hal_rcc.c ****         
 424:Drivers/STM32L0xx_HAL_Driver/Src/stm32l0xx_hal_rcc.c ****         /* Wait till HSI is ready */
 425:Drivers/STM32L0xx_HAL_Driver/Src/stm32l0xx_hal_rcc.c ****         while(__HAL_RCC_GET_FLAG(RCC_FLAG_HSIRDY) == RESET)
 426:Drivers/STM32L0xx_HAL_Driver/Src/stm32l0xx_hal_rcc.c ****         {
 427:Drivers/STM32L0xx_HAL_Driver/Src/stm32l0xx_hal_rcc.c ****           if((HAL_GetTick() - tickstart ) > HSI_TIMEOUT_VALUE)
 428:Drivers/STM32L0xx_HAL_Driver/Src/stm32l0xx_hal_rcc.c ****           {
 429:Drivers/STM32L0xx_HAL_Driver/Src/stm32l0xx_hal_rcc.c ****             return HAL_TIMEOUT;
 430:Drivers/STM32L0xx_HAL_Driver/Src/stm32l0xx_hal_rcc.c ****           }
 431:Drivers/STM32L0xx_HAL_Driver/Src/stm32l0xx_hal_rcc.c ****         }
 432:Drivers/STM32L0xx_HAL_Driver/Src/stm32l0xx_hal_rcc.c ****                 
 433:Drivers/STM32L0xx_HAL_Driver/Src/stm32l0xx_hal_rcc.c ****         /* Adjusts the Internal High Speed oscillator (HSI) calibration value.*/
ARM GAS  /tmp/ccWNGGuS.s 			page 9


 434:Drivers/STM32L0xx_HAL_Driver/Src/stm32l0xx_hal_rcc.c ****         __HAL_RCC_HSI_CALIBRATIONVALUE_ADJUST(RCC_OscInitStruct->HSICalibrationValue);
 435:Drivers/STM32L0xx_HAL_Driver/Src/stm32l0xx_hal_rcc.c ****       }
 436:Drivers/STM32L0xx_HAL_Driver/Src/stm32l0xx_hal_rcc.c ****       else
 437:Drivers/STM32L0xx_HAL_Driver/Src/stm32l0xx_hal_rcc.c ****       {
 438:Drivers/STM32L0xx_HAL_Driver/Src/stm32l0xx_hal_rcc.c ****         /* Disable the Internal High Speed oscillator (HSI). */
 439:Drivers/STM32L0xx_HAL_Driver/Src/stm32l0xx_hal_rcc.c ****         __HAL_RCC_HSI_DISABLE();
 440:Drivers/STM32L0xx_HAL_Driver/Src/stm32l0xx_hal_rcc.c ****         
 441:Drivers/STM32L0xx_HAL_Driver/Src/stm32l0xx_hal_rcc.c ****         /* Get Start Tick */
 442:Drivers/STM32L0xx_HAL_Driver/Src/stm32l0xx_hal_rcc.c ****         tickstart = HAL_GetTick();
 443:Drivers/STM32L0xx_HAL_Driver/Src/stm32l0xx_hal_rcc.c ****         
 444:Drivers/STM32L0xx_HAL_Driver/Src/stm32l0xx_hal_rcc.c ****         /* Wait till HSI is disabled */
 445:Drivers/STM32L0xx_HAL_Driver/Src/stm32l0xx_hal_rcc.c ****         while(__HAL_RCC_GET_FLAG(RCC_FLAG_HSIRDY) != RESET)
 446:Drivers/STM32L0xx_HAL_Driver/Src/stm32l0xx_hal_rcc.c ****         {
 447:Drivers/STM32L0xx_HAL_Driver/Src/stm32l0xx_hal_rcc.c ****           if((HAL_GetTick() - tickstart ) > HSI_TIMEOUT_VALUE)
 448:Drivers/STM32L0xx_HAL_Driver/Src/stm32l0xx_hal_rcc.c ****           {
 449:Drivers/STM32L0xx_HAL_Driver/Src/stm32l0xx_hal_rcc.c ****             return HAL_TIMEOUT;
 450:Drivers/STM32L0xx_HAL_Driver/Src/stm32l0xx_hal_rcc.c ****           }
 451:Drivers/STM32L0xx_HAL_Driver/Src/stm32l0xx_hal_rcc.c ****         }
 452:Drivers/STM32L0xx_HAL_Driver/Src/stm32l0xx_hal_rcc.c ****       }
 453:Drivers/STM32L0xx_HAL_Driver/Src/stm32l0xx_hal_rcc.c ****     }
 454:Drivers/STM32L0xx_HAL_Driver/Src/stm32l0xx_hal_rcc.c ****   }
 455:Drivers/STM32L0xx_HAL_Driver/Src/stm32l0xx_hal_rcc.c ****   /*----------------------------- MSI Configuration --------------------------*/ 
 456:Drivers/STM32L0xx_HAL_Driver/Src/stm32l0xx_hal_rcc.c ****   if(((RCC_OscInitStruct->OscillatorType) & RCC_OSCILLATORTYPE_MSI) == RCC_OSCILLATORTYPE_MSI)
 457:Drivers/STM32L0xx_HAL_Driver/Src/stm32l0xx_hal_rcc.c ****   {
 458:Drivers/STM32L0xx_HAL_Driver/Src/stm32l0xx_hal_rcc.c ****     /* When the MSI is used as system clock it will not be disabled */
 459:Drivers/STM32L0xx_HAL_Driver/Src/stm32l0xx_hal_rcc.c ****     if((__HAL_RCC_GET_SYSCLK_SOURCE() == RCC_CFGR_SWS_MSI) )
 460:Drivers/STM32L0xx_HAL_Driver/Src/stm32l0xx_hal_rcc.c ****     {
 461:Drivers/STM32L0xx_HAL_Driver/Src/stm32l0xx_hal_rcc.c ****       if((__HAL_RCC_GET_FLAG(RCC_FLAG_MSIRDY) != RESET) && (RCC_OscInitStruct->MSIState == RCC_MSI_
 462:Drivers/STM32L0xx_HAL_Driver/Src/stm32l0xx_hal_rcc.c ****       {
 463:Drivers/STM32L0xx_HAL_Driver/Src/stm32l0xx_hal_rcc.c ****         return HAL_ERROR;
 464:Drivers/STM32L0xx_HAL_Driver/Src/stm32l0xx_hal_rcc.c ****       }
 465:Drivers/STM32L0xx_HAL_Driver/Src/stm32l0xx_hal_rcc.c ****       /* Otherwise, just the calibration and MSI range change are allowed */
 466:Drivers/STM32L0xx_HAL_Driver/Src/stm32l0xx_hal_rcc.c ****       else
 467:Drivers/STM32L0xx_HAL_Driver/Src/stm32l0xx_hal_rcc.c ****       {
 468:Drivers/STM32L0xx_HAL_Driver/Src/stm32l0xx_hal_rcc.c ****        /* Check MSICalibrationValue and MSIClockRange input parameters */
 469:Drivers/STM32L0xx_HAL_Driver/Src/stm32l0xx_hal_rcc.c ****         assert_param(IS_RCC_MSICALIBRATION_VALUE(RCC_OscInitStruct->MSICalibrationValue));
 470:Drivers/STM32L0xx_HAL_Driver/Src/stm32l0xx_hal_rcc.c ****         assert_param(IS_RCC_MSI_CLOCK_RANGE(RCC_OscInitStruct->MSIClockRange));
 471:Drivers/STM32L0xx_HAL_Driver/Src/stm32l0xx_hal_rcc.c **** 
 472:Drivers/STM32L0xx_HAL_Driver/Src/stm32l0xx_hal_rcc.c ****         /* To correctly read data from FLASH memory, the number of wait states (LATENCY)
 473:Drivers/STM32L0xx_HAL_Driver/Src/stm32l0xx_hal_rcc.c ****            must be correctly programmed according to the frequency of the CPU clock
 474:Drivers/STM32L0xx_HAL_Driver/Src/stm32l0xx_hal_rcc.c ****            (HCLK) and the supply voltage of the device. */
 475:Drivers/STM32L0xx_HAL_Driver/Src/stm32l0xx_hal_rcc.c ****         if(RCC_OscInitStruct->MSIClockRange > __HAL_RCC_GET_MSI_RANGE())
 476:Drivers/STM32L0xx_HAL_Driver/Src/stm32l0xx_hal_rcc.c ****         {
 477:Drivers/STM32L0xx_HAL_Driver/Src/stm32l0xx_hal_rcc.c ****           /* First increase number of wait states update if necessary */
 478:Drivers/STM32L0xx_HAL_Driver/Src/stm32l0xx_hal_rcc.c ****           if(RCC_SetFlashLatencyFromMSIRange(RCC_OscInitStruct->MSIClockRange) != HAL_OK)
 479:Drivers/STM32L0xx_HAL_Driver/Src/stm32l0xx_hal_rcc.c ****           {
 480:Drivers/STM32L0xx_HAL_Driver/Src/stm32l0xx_hal_rcc.c ****             return HAL_ERROR;
 481:Drivers/STM32L0xx_HAL_Driver/Src/stm32l0xx_hal_rcc.c ****           }
 482:Drivers/STM32L0xx_HAL_Driver/Src/stm32l0xx_hal_rcc.c **** 
 483:Drivers/STM32L0xx_HAL_Driver/Src/stm32l0xx_hal_rcc.c ****           /* Selects the Multiple Speed oscillator (MSI) clock range .*/
 484:Drivers/STM32L0xx_HAL_Driver/Src/stm32l0xx_hal_rcc.c ****           __HAL_RCC_MSI_RANGE_CONFIG(RCC_OscInitStruct->MSIClockRange);
 485:Drivers/STM32L0xx_HAL_Driver/Src/stm32l0xx_hal_rcc.c ****           /* Adjusts the Multiple Speed oscillator (MSI) calibration value.*/
 486:Drivers/STM32L0xx_HAL_Driver/Src/stm32l0xx_hal_rcc.c ****           __HAL_RCC_MSI_CALIBRATIONVALUE_ADJUST(RCC_OscInitStruct->MSICalibrationValue);
 487:Drivers/STM32L0xx_HAL_Driver/Src/stm32l0xx_hal_rcc.c ****         }
 488:Drivers/STM32L0xx_HAL_Driver/Src/stm32l0xx_hal_rcc.c ****         else
 489:Drivers/STM32L0xx_HAL_Driver/Src/stm32l0xx_hal_rcc.c ****         {
 490:Drivers/STM32L0xx_HAL_Driver/Src/stm32l0xx_hal_rcc.c ****           /* Else, keep current flash latency while decreasing applies */
ARM GAS  /tmp/ccWNGGuS.s 			page 10


 491:Drivers/STM32L0xx_HAL_Driver/Src/stm32l0xx_hal_rcc.c ****           /* Selects the Multiple Speed oscillator (MSI) clock range .*/
 492:Drivers/STM32L0xx_HAL_Driver/Src/stm32l0xx_hal_rcc.c ****           __HAL_RCC_MSI_RANGE_CONFIG(RCC_OscInitStruct->MSIClockRange);
 493:Drivers/STM32L0xx_HAL_Driver/Src/stm32l0xx_hal_rcc.c ****           /* Adjusts the Multiple Speed oscillator (MSI) calibration value.*/
 494:Drivers/STM32L0xx_HAL_Driver/Src/stm32l0xx_hal_rcc.c ****           __HAL_RCC_MSI_CALIBRATIONVALUE_ADJUST(RCC_OscInitStruct->MSICalibrationValue);
 495:Drivers/STM32L0xx_HAL_Driver/Src/stm32l0xx_hal_rcc.c **** 
 496:Drivers/STM32L0xx_HAL_Driver/Src/stm32l0xx_hal_rcc.c ****           /* Decrease number of wait states update if necessary */
 497:Drivers/STM32L0xx_HAL_Driver/Src/stm32l0xx_hal_rcc.c ****           if(RCC_SetFlashLatencyFromMSIRange(RCC_OscInitStruct->MSIClockRange) != HAL_OK)
 498:Drivers/STM32L0xx_HAL_Driver/Src/stm32l0xx_hal_rcc.c ****           {
 499:Drivers/STM32L0xx_HAL_Driver/Src/stm32l0xx_hal_rcc.c ****             return HAL_ERROR;
 500:Drivers/STM32L0xx_HAL_Driver/Src/stm32l0xx_hal_rcc.c ****           }          
 501:Drivers/STM32L0xx_HAL_Driver/Src/stm32l0xx_hal_rcc.c ****         }
 502:Drivers/STM32L0xx_HAL_Driver/Src/stm32l0xx_hal_rcc.c **** 
 503:Drivers/STM32L0xx_HAL_Driver/Src/stm32l0xx_hal_rcc.c ****         /* Update the SystemCoreClock global variable */
 504:Drivers/STM32L0xx_HAL_Driver/Src/stm32l0xx_hal_rcc.c ****         SystemCoreClock =  (32768U * (1U << ((RCC_OscInitStruct->MSIClockRange >> RCC_ICSCR_MSIRANG
 505:Drivers/STM32L0xx_HAL_Driver/Src/stm32l0xx_hal_rcc.c ****                            >> AHBPrescTable[((RCC->CFGR & RCC_CFGR_HPRE) >> RCC_CFGR_HPRE_BITNUMBER
 506:Drivers/STM32L0xx_HAL_Driver/Src/stm32l0xx_hal_rcc.c **** 
 507:Drivers/STM32L0xx_HAL_Driver/Src/stm32l0xx_hal_rcc.c ****         /* Configure the source of time base considering new system clocks settings*/
 508:Drivers/STM32L0xx_HAL_Driver/Src/stm32l0xx_hal_rcc.c ****         HAL_InitTick (TICK_INT_PRIORITY);
 509:Drivers/STM32L0xx_HAL_Driver/Src/stm32l0xx_hal_rcc.c ****       }
 510:Drivers/STM32L0xx_HAL_Driver/Src/stm32l0xx_hal_rcc.c ****     }
 511:Drivers/STM32L0xx_HAL_Driver/Src/stm32l0xx_hal_rcc.c ****     else
 512:Drivers/STM32L0xx_HAL_Driver/Src/stm32l0xx_hal_rcc.c ****     {
 513:Drivers/STM32L0xx_HAL_Driver/Src/stm32l0xx_hal_rcc.c ****       /* Check MSI State */
 514:Drivers/STM32L0xx_HAL_Driver/Src/stm32l0xx_hal_rcc.c ****       assert_param(IS_RCC_MSI(RCC_OscInitStruct->MSIState));
 515:Drivers/STM32L0xx_HAL_Driver/Src/stm32l0xx_hal_rcc.c **** 
 516:Drivers/STM32L0xx_HAL_Driver/Src/stm32l0xx_hal_rcc.c ****       /* Check the MSI State */
 517:Drivers/STM32L0xx_HAL_Driver/Src/stm32l0xx_hal_rcc.c ****       if(RCC_OscInitStruct->MSIState != RCC_MSI_OFF)
 518:Drivers/STM32L0xx_HAL_Driver/Src/stm32l0xx_hal_rcc.c ****       {
 519:Drivers/STM32L0xx_HAL_Driver/Src/stm32l0xx_hal_rcc.c ****         /* Enable the Multi Speed oscillator (MSI). */
 520:Drivers/STM32L0xx_HAL_Driver/Src/stm32l0xx_hal_rcc.c ****         __HAL_RCC_MSI_ENABLE();
 521:Drivers/STM32L0xx_HAL_Driver/Src/stm32l0xx_hal_rcc.c **** 
 522:Drivers/STM32L0xx_HAL_Driver/Src/stm32l0xx_hal_rcc.c ****         /* Get Start Tick */
 523:Drivers/STM32L0xx_HAL_Driver/Src/stm32l0xx_hal_rcc.c ****         tickstart = HAL_GetTick();
 524:Drivers/STM32L0xx_HAL_Driver/Src/stm32l0xx_hal_rcc.c **** 
 525:Drivers/STM32L0xx_HAL_Driver/Src/stm32l0xx_hal_rcc.c ****         /* Wait till MSI is ready */
 526:Drivers/STM32L0xx_HAL_Driver/Src/stm32l0xx_hal_rcc.c ****         while(__HAL_RCC_GET_FLAG(RCC_FLAG_MSIRDY) == RESET)
 527:Drivers/STM32L0xx_HAL_Driver/Src/stm32l0xx_hal_rcc.c ****         {
 528:Drivers/STM32L0xx_HAL_Driver/Src/stm32l0xx_hal_rcc.c ****           if((HAL_GetTick() - tickstart) > MSI_TIMEOUT_VALUE)
 529:Drivers/STM32L0xx_HAL_Driver/Src/stm32l0xx_hal_rcc.c ****           {
 530:Drivers/STM32L0xx_HAL_Driver/Src/stm32l0xx_hal_rcc.c ****             return HAL_TIMEOUT;
 531:Drivers/STM32L0xx_HAL_Driver/Src/stm32l0xx_hal_rcc.c ****           }
 532:Drivers/STM32L0xx_HAL_Driver/Src/stm32l0xx_hal_rcc.c ****         }
 533:Drivers/STM32L0xx_HAL_Driver/Src/stm32l0xx_hal_rcc.c ****         /* Check MSICalibrationValue and MSIClockRange input parameters */
 534:Drivers/STM32L0xx_HAL_Driver/Src/stm32l0xx_hal_rcc.c ****         assert_param(IS_RCC_MSICALIBRATION_VALUE(RCC_OscInitStruct->MSICalibrationValue));
 535:Drivers/STM32L0xx_HAL_Driver/Src/stm32l0xx_hal_rcc.c ****         assert_param(IS_RCC_MSI_CLOCK_RANGE(RCC_OscInitStruct->MSIClockRange));
 536:Drivers/STM32L0xx_HAL_Driver/Src/stm32l0xx_hal_rcc.c **** 
 537:Drivers/STM32L0xx_HAL_Driver/Src/stm32l0xx_hal_rcc.c ****         /* Selects the Multiple Speed oscillator (MSI) clock range .*/
 538:Drivers/STM32L0xx_HAL_Driver/Src/stm32l0xx_hal_rcc.c ****         __HAL_RCC_MSI_RANGE_CONFIG(RCC_OscInitStruct->MSIClockRange);
 539:Drivers/STM32L0xx_HAL_Driver/Src/stm32l0xx_hal_rcc.c ****          /* Adjusts the Multiple Speed oscillator (MSI) calibration value.*/
 540:Drivers/STM32L0xx_HAL_Driver/Src/stm32l0xx_hal_rcc.c ****         __HAL_RCC_MSI_CALIBRATIONVALUE_ADJUST(RCC_OscInitStruct->MSICalibrationValue);
 541:Drivers/STM32L0xx_HAL_Driver/Src/stm32l0xx_hal_rcc.c **** 
 542:Drivers/STM32L0xx_HAL_Driver/Src/stm32l0xx_hal_rcc.c ****       }
 543:Drivers/STM32L0xx_HAL_Driver/Src/stm32l0xx_hal_rcc.c ****       else
 544:Drivers/STM32L0xx_HAL_Driver/Src/stm32l0xx_hal_rcc.c ****       {
 545:Drivers/STM32L0xx_HAL_Driver/Src/stm32l0xx_hal_rcc.c ****         /* Disable the Multi Speed oscillator (MSI). */
 546:Drivers/STM32L0xx_HAL_Driver/Src/stm32l0xx_hal_rcc.c ****         __HAL_RCC_MSI_DISABLE();
 547:Drivers/STM32L0xx_HAL_Driver/Src/stm32l0xx_hal_rcc.c **** 
ARM GAS  /tmp/ccWNGGuS.s 			page 11


 548:Drivers/STM32L0xx_HAL_Driver/Src/stm32l0xx_hal_rcc.c ****         /* Get Start Tick */
 549:Drivers/STM32L0xx_HAL_Driver/Src/stm32l0xx_hal_rcc.c ****         tickstart = HAL_GetTick();
 550:Drivers/STM32L0xx_HAL_Driver/Src/stm32l0xx_hal_rcc.c **** 
 551:Drivers/STM32L0xx_HAL_Driver/Src/stm32l0xx_hal_rcc.c ****         /* Wait till MSI is ready */
 552:Drivers/STM32L0xx_HAL_Driver/Src/stm32l0xx_hal_rcc.c ****         while(__HAL_RCC_GET_FLAG(RCC_FLAG_MSIRDY) != RESET)
 553:Drivers/STM32L0xx_HAL_Driver/Src/stm32l0xx_hal_rcc.c ****         {
 554:Drivers/STM32L0xx_HAL_Driver/Src/stm32l0xx_hal_rcc.c ****           if((HAL_GetTick() - tickstart) > MSI_TIMEOUT_VALUE)
 555:Drivers/STM32L0xx_HAL_Driver/Src/stm32l0xx_hal_rcc.c ****           {
 556:Drivers/STM32L0xx_HAL_Driver/Src/stm32l0xx_hal_rcc.c ****             return HAL_TIMEOUT;
 557:Drivers/STM32L0xx_HAL_Driver/Src/stm32l0xx_hal_rcc.c ****           }
 558:Drivers/STM32L0xx_HAL_Driver/Src/stm32l0xx_hal_rcc.c ****         }
 559:Drivers/STM32L0xx_HAL_Driver/Src/stm32l0xx_hal_rcc.c ****       }
 560:Drivers/STM32L0xx_HAL_Driver/Src/stm32l0xx_hal_rcc.c ****     }
 561:Drivers/STM32L0xx_HAL_Driver/Src/stm32l0xx_hal_rcc.c ****   }  
 562:Drivers/STM32L0xx_HAL_Driver/Src/stm32l0xx_hal_rcc.c ****   /*------------------------------ LSI Configuration -------------------------*/ 
 563:Drivers/STM32L0xx_HAL_Driver/Src/stm32l0xx_hal_rcc.c ****   if(((RCC_OscInitStruct->OscillatorType) & RCC_OSCILLATORTYPE_LSI) == RCC_OSCILLATORTYPE_LSI)
 564:Drivers/STM32L0xx_HAL_Driver/Src/stm32l0xx_hal_rcc.c ****   {
 565:Drivers/STM32L0xx_HAL_Driver/Src/stm32l0xx_hal_rcc.c ****     /* Check the parameters */
 566:Drivers/STM32L0xx_HAL_Driver/Src/stm32l0xx_hal_rcc.c ****     assert_param(IS_RCC_LSI(RCC_OscInitStruct->LSIState));
 567:Drivers/STM32L0xx_HAL_Driver/Src/stm32l0xx_hal_rcc.c ****     
 568:Drivers/STM32L0xx_HAL_Driver/Src/stm32l0xx_hal_rcc.c ****     /* Check the LSI State */
 569:Drivers/STM32L0xx_HAL_Driver/Src/stm32l0xx_hal_rcc.c ****     if(RCC_OscInitStruct->LSIState != RCC_LSI_OFF)
 570:Drivers/STM32L0xx_HAL_Driver/Src/stm32l0xx_hal_rcc.c ****     {
 571:Drivers/STM32L0xx_HAL_Driver/Src/stm32l0xx_hal_rcc.c ****       /* Enable the Internal Low Speed oscillator (LSI). */
 572:Drivers/STM32L0xx_HAL_Driver/Src/stm32l0xx_hal_rcc.c ****       __HAL_RCC_LSI_ENABLE();
 573:Drivers/STM32L0xx_HAL_Driver/Src/stm32l0xx_hal_rcc.c ****       
 574:Drivers/STM32L0xx_HAL_Driver/Src/stm32l0xx_hal_rcc.c ****       /* Get Start Tick */
 575:Drivers/STM32L0xx_HAL_Driver/Src/stm32l0xx_hal_rcc.c ****       tickstart = HAL_GetTick();
 576:Drivers/STM32L0xx_HAL_Driver/Src/stm32l0xx_hal_rcc.c ****       
 577:Drivers/STM32L0xx_HAL_Driver/Src/stm32l0xx_hal_rcc.c ****       /* Wait till LSI is ready */  
 578:Drivers/STM32L0xx_HAL_Driver/Src/stm32l0xx_hal_rcc.c ****       while(__HAL_RCC_GET_FLAG(RCC_FLAG_LSIRDY) == RESET)
 579:Drivers/STM32L0xx_HAL_Driver/Src/stm32l0xx_hal_rcc.c ****       {
 580:Drivers/STM32L0xx_HAL_Driver/Src/stm32l0xx_hal_rcc.c ****         if((HAL_GetTick() - tickstart ) > LSI_TIMEOUT_VALUE)
 581:Drivers/STM32L0xx_HAL_Driver/Src/stm32l0xx_hal_rcc.c ****         {
 582:Drivers/STM32L0xx_HAL_Driver/Src/stm32l0xx_hal_rcc.c ****           return HAL_TIMEOUT;
 583:Drivers/STM32L0xx_HAL_Driver/Src/stm32l0xx_hal_rcc.c ****         }
 584:Drivers/STM32L0xx_HAL_Driver/Src/stm32l0xx_hal_rcc.c ****       }
 585:Drivers/STM32L0xx_HAL_Driver/Src/stm32l0xx_hal_rcc.c ****     }
 586:Drivers/STM32L0xx_HAL_Driver/Src/stm32l0xx_hal_rcc.c ****     else
 587:Drivers/STM32L0xx_HAL_Driver/Src/stm32l0xx_hal_rcc.c ****     {
 588:Drivers/STM32L0xx_HAL_Driver/Src/stm32l0xx_hal_rcc.c ****       /* Disable the Internal Low Speed oscillator (LSI). */
 589:Drivers/STM32L0xx_HAL_Driver/Src/stm32l0xx_hal_rcc.c ****       __HAL_RCC_LSI_DISABLE();
 590:Drivers/STM32L0xx_HAL_Driver/Src/stm32l0xx_hal_rcc.c ****       
 591:Drivers/STM32L0xx_HAL_Driver/Src/stm32l0xx_hal_rcc.c ****       /* Get Start Tick */
 592:Drivers/STM32L0xx_HAL_Driver/Src/stm32l0xx_hal_rcc.c ****       tickstart = HAL_GetTick();
 593:Drivers/STM32L0xx_HAL_Driver/Src/stm32l0xx_hal_rcc.c ****       
 594:Drivers/STM32L0xx_HAL_Driver/Src/stm32l0xx_hal_rcc.c ****       /* Wait till LSI is disabled */  
 595:Drivers/STM32L0xx_HAL_Driver/Src/stm32l0xx_hal_rcc.c ****       while(__HAL_RCC_GET_FLAG(RCC_FLAG_LSIRDY) != RESET)
 596:Drivers/STM32L0xx_HAL_Driver/Src/stm32l0xx_hal_rcc.c ****       {
 597:Drivers/STM32L0xx_HAL_Driver/Src/stm32l0xx_hal_rcc.c ****         if((HAL_GetTick() - tickstart ) > LSI_TIMEOUT_VALUE)
 598:Drivers/STM32L0xx_HAL_Driver/Src/stm32l0xx_hal_rcc.c ****         {
 599:Drivers/STM32L0xx_HAL_Driver/Src/stm32l0xx_hal_rcc.c ****           return HAL_TIMEOUT;
 600:Drivers/STM32L0xx_HAL_Driver/Src/stm32l0xx_hal_rcc.c ****         }
 601:Drivers/STM32L0xx_HAL_Driver/Src/stm32l0xx_hal_rcc.c ****       }
 602:Drivers/STM32L0xx_HAL_Driver/Src/stm32l0xx_hal_rcc.c ****     }
 603:Drivers/STM32L0xx_HAL_Driver/Src/stm32l0xx_hal_rcc.c ****   }
 604:Drivers/STM32L0xx_HAL_Driver/Src/stm32l0xx_hal_rcc.c ****   /*------------------------------ LSE Configuration -------------------------*/ 
ARM GAS  /tmp/ccWNGGuS.s 			page 12


 605:Drivers/STM32L0xx_HAL_Driver/Src/stm32l0xx_hal_rcc.c ****   if(((RCC_OscInitStruct->OscillatorType) & RCC_OSCILLATORTYPE_LSE) == RCC_OSCILLATORTYPE_LSE)
 606:Drivers/STM32L0xx_HAL_Driver/Src/stm32l0xx_hal_rcc.c ****   {
 607:Drivers/STM32L0xx_HAL_Driver/Src/stm32l0xx_hal_rcc.c ****     FlagStatus       pwrclkchanged = RESET;
 608:Drivers/STM32L0xx_HAL_Driver/Src/stm32l0xx_hal_rcc.c ****     
 609:Drivers/STM32L0xx_HAL_Driver/Src/stm32l0xx_hal_rcc.c ****     /* Check the parameters */
 610:Drivers/STM32L0xx_HAL_Driver/Src/stm32l0xx_hal_rcc.c ****     assert_param(IS_RCC_LSE(RCC_OscInitStruct->LSEState));
 611:Drivers/STM32L0xx_HAL_Driver/Src/stm32l0xx_hal_rcc.c **** 
 612:Drivers/STM32L0xx_HAL_Driver/Src/stm32l0xx_hal_rcc.c ****     /* Update LSE configuration in Backup Domain control register    */
 613:Drivers/STM32L0xx_HAL_Driver/Src/stm32l0xx_hal_rcc.c ****     /* Requires to enable write access to Backup Domain of necessary */
 614:Drivers/STM32L0xx_HAL_Driver/Src/stm32l0xx_hal_rcc.c ****     if(__HAL_RCC_PWR_IS_CLK_DISABLED())
 615:Drivers/STM32L0xx_HAL_Driver/Src/stm32l0xx_hal_rcc.c ****     {
 616:Drivers/STM32L0xx_HAL_Driver/Src/stm32l0xx_hal_rcc.c ****       __HAL_RCC_PWR_CLK_ENABLE();
 617:Drivers/STM32L0xx_HAL_Driver/Src/stm32l0xx_hal_rcc.c ****       pwrclkchanged = SET;
 618:Drivers/STM32L0xx_HAL_Driver/Src/stm32l0xx_hal_rcc.c ****     }
 619:Drivers/STM32L0xx_HAL_Driver/Src/stm32l0xx_hal_rcc.c ****     
 620:Drivers/STM32L0xx_HAL_Driver/Src/stm32l0xx_hal_rcc.c ****     if(HAL_IS_BIT_CLR(PWR->CR, PWR_CR_DBP))
 621:Drivers/STM32L0xx_HAL_Driver/Src/stm32l0xx_hal_rcc.c ****     {
 622:Drivers/STM32L0xx_HAL_Driver/Src/stm32l0xx_hal_rcc.c ****       /* Enable write access to Backup domain */
 623:Drivers/STM32L0xx_HAL_Driver/Src/stm32l0xx_hal_rcc.c ****       SET_BIT(PWR->CR, PWR_CR_DBP);
 624:Drivers/STM32L0xx_HAL_Driver/Src/stm32l0xx_hal_rcc.c ****       
 625:Drivers/STM32L0xx_HAL_Driver/Src/stm32l0xx_hal_rcc.c ****       /* Wait for Backup domain Write protection disable */
 626:Drivers/STM32L0xx_HAL_Driver/Src/stm32l0xx_hal_rcc.c ****       tickstart = HAL_GetTick();
 627:Drivers/STM32L0xx_HAL_Driver/Src/stm32l0xx_hal_rcc.c **** 
 628:Drivers/STM32L0xx_HAL_Driver/Src/stm32l0xx_hal_rcc.c ****       while(HAL_IS_BIT_CLR(PWR->CR, PWR_CR_DBP))
 629:Drivers/STM32L0xx_HAL_Driver/Src/stm32l0xx_hal_rcc.c ****       {
 630:Drivers/STM32L0xx_HAL_Driver/Src/stm32l0xx_hal_rcc.c ****         if((HAL_GetTick() - tickstart) > RCC_DBP_TIMEOUT_VALUE)
 631:Drivers/STM32L0xx_HAL_Driver/Src/stm32l0xx_hal_rcc.c ****         {
 632:Drivers/STM32L0xx_HAL_Driver/Src/stm32l0xx_hal_rcc.c ****           return HAL_TIMEOUT;
 633:Drivers/STM32L0xx_HAL_Driver/Src/stm32l0xx_hal_rcc.c ****         }
 634:Drivers/STM32L0xx_HAL_Driver/Src/stm32l0xx_hal_rcc.c ****       }
 635:Drivers/STM32L0xx_HAL_Driver/Src/stm32l0xx_hal_rcc.c ****     }
 636:Drivers/STM32L0xx_HAL_Driver/Src/stm32l0xx_hal_rcc.c **** 
 637:Drivers/STM32L0xx_HAL_Driver/Src/stm32l0xx_hal_rcc.c ****     /* Set the new LSE configuration -----------------------------------------*/
 638:Drivers/STM32L0xx_HAL_Driver/Src/stm32l0xx_hal_rcc.c ****     __HAL_RCC_LSE_CONFIG(RCC_OscInitStruct->LSEState);
 639:Drivers/STM32L0xx_HAL_Driver/Src/stm32l0xx_hal_rcc.c ****     /* Check the LSE State */
 640:Drivers/STM32L0xx_HAL_Driver/Src/stm32l0xx_hal_rcc.c ****     if(RCC_OscInitStruct->LSEState != RCC_LSE_OFF)
 641:Drivers/STM32L0xx_HAL_Driver/Src/stm32l0xx_hal_rcc.c ****     {
 642:Drivers/STM32L0xx_HAL_Driver/Src/stm32l0xx_hal_rcc.c ****       /* Get Start Tick */
 643:Drivers/STM32L0xx_HAL_Driver/Src/stm32l0xx_hal_rcc.c ****       tickstart = HAL_GetTick();
 644:Drivers/STM32L0xx_HAL_Driver/Src/stm32l0xx_hal_rcc.c ****       
 645:Drivers/STM32L0xx_HAL_Driver/Src/stm32l0xx_hal_rcc.c ****       /* Wait till LSE is ready */  
 646:Drivers/STM32L0xx_HAL_Driver/Src/stm32l0xx_hal_rcc.c ****       while(__HAL_RCC_GET_FLAG(RCC_FLAG_LSERDY) == RESET)
 647:Drivers/STM32L0xx_HAL_Driver/Src/stm32l0xx_hal_rcc.c ****       {
 648:Drivers/STM32L0xx_HAL_Driver/Src/stm32l0xx_hal_rcc.c ****         if((HAL_GetTick() - tickstart ) > RCC_LSE_TIMEOUT_VALUE)
 649:Drivers/STM32L0xx_HAL_Driver/Src/stm32l0xx_hal_rcc.c ****         {
 650:Drivers/STM32L0xx_HAL_Driver/Src/stm32l0xx_hal_rcc.c ****           return HAL_TIMEOUT;
 651:Drivers/STM32L0xx_HAL_Driver/Src/stm32l0xx_hal_rcc.c ****         }
 652:Drivers/STM32L0xx_HAL_Driver/Src/stm32l0xx_hal_rcc.c ****       }
 653:Drivers/STM32L0xx_HAL_Driver/Src/stm32l0xx_hal_rcc.c ****     }
 654:Drivers/STM32L0xx_HAL_Driver/Src/stm32l0xx_hal_rcc.c ****     else
 655:Drivers/STM32L0xx_HAL_Driver/Src/stm32l0xx_hal_rcc.c ****     {
 656:Drivers/STM32L0xx_HAL_Driver/Src/stm32l0xx_hal_rcc.c ****       /* Get Start Tick */
 657:Drivers/STM32L0xx_HAL_Driver/Src/stm32l0xx_hal_rcc.c ****       tickstart = HAL_GetTick();
 658:Drivers/STM32L0xx_HAL_Driver/Src/stm32l0xx_hal_rcc.c ****       
 659:Drivers/STM32L0xx_HAL_Driver/Src/stm32l0xx_hal_rcc.c ****       /* Wait till LSE is disabled */  
 660:Drivers/STM32L0xx_HAL_Driver/Src/stm32l0xx_hal_rcc.c ****       while(__HAL_RCC_GET_FLAG(RCC_FLAG_LSERDY) != RESET)
 661:Drivers/STM32L0xx_HAL_Driver/Src/stm32l0xx_hal_rcc.c ****       {
ARM GAS  /tmp/ccWNGGuS.s 			page 13


 662:Drivers/STM32L0xx_HAL_Driver/Src/stm32l0xx_hal_rcc.c ****         if((HAL_GetTick() - tickstart ) > RCC_LSE_TIMEOUT_VALUE)
 663:Drivers/STM32L0xx_HAL_Driver/Src/stm32l0xx_hal_rcc.c ****         {
 664:Drivers/STM32L0xx_HAL_Driver/Src/stm32l0xx_hal_rcc.c ****           return HAL_TIMEOUT;
 665:Drivers/STM32L0xx_HAL_Driver/Src/stm32l0xx_hal_rcc.c ****         }
 666:Drivers/STM32L0xx_HAL_Driver/Src/stm32l0xx_hal_rcc.c ****       }
 667:Drivers/STM32L0xx_HAL_Driver/Src/stm32l0xx_hal_rcc.c ****     }
 668:Drivers/STM32L0xx_HAL_Driver/Src/stm32l0xx_hal_rcc.c **** 
 669:Drivers/STM32L0xx_HAL_Driver/Src/stm32l0xx_hal_rcc.c ****     /* Require to disable power clock if necessary */
 670:Drivers/STM32L0xx_HAL_Driver/Src/stm32l0xx_hal_rcc.c ****     if(pwrclkchanged == SET)
 671:Drivers/STM32L0xx_HAL_Driver/Src/stm32l0xx_hal_rcc.c ****     {
 672:Drivers/STM32L0xx_HAL_Driver/Src/stm32l0xx_hal_rcc.c ****       __HAL_RCC_PWR_CLK_DISABLE();
 673:Drivers/STM32L0xx_HAL_Driver/Src/stm32l0xx_hal_rcc.c ****     }
 674:Drivers/STM32L0xx_HAL_Driver/Src/stm32l0xx_hal_rcc.c ****   }
 675:Drivers/STM32L0xx_HAL_Driver/Src/stm32l0xx_hal_rcc.c **** 
 676:Drivers/STM32L0xx_HAL_Driver/Src/stm32l0xx_hal_rcc.c **** #if defined(RCC_HSI48_SUPPORT)
 677:Drivers/STM32L0xx_HAL_Driver/Src/stm32l0xx_hal_rcc.c ****   /*----------------------------- HSI48 Configuration --------------------------*/
 678:Drivers/STM32L0xx_HAL_Driver/Src/stm32l0xx_hal_rcc.c ****   if(((RCC_OscInitStruct->OscillatorType) & RCC_OSCILLATORTYPE_HSI48) == RCC_OSCILLATORTYPE_HSI48)
 679:Drivers/STM32L0xx_HAL_Driver/Src/stm32l0xx_hal_rcc.c ****   {
 680:Drivers/STM32L0xx_HAL_Driver/Src/stm32l0xx_hal_rcc.c ****     /* Check the parameters */
 681:Drivers/STM32L0xx_HAL_Driver/Src/stm32l0xx_hal_rcc.c ****     assert_param(IS_RCC_HSI48(RCC_OscInitStruct->HSI48State));
 682:Drivers/STM32L0xx_HAL_Driver/Src/stm32l0xx_hal_rcc.c **** 
 683:Drivers/STM32L0xx_HAL_Driver/Src/stm32l0xx_hal_rcc.c ****       /* Check the HSI48 State */
 684:Drivers/STM32L0xx_HAL_Driver/Src/stm32l0xx_hal_rcc.c ****       if(RCC_OscInitStruct->HSI48State != RCC_HSI48_OFF)
 685:Drivers/STM32L0xx_HAL_Driver/Src/stm32l0xx_hal_rcc.c ****       {
 686:Drivers/STM32L0xx_HAL_Driver/Src/stm32l0xx_hal_rcc.c ****         /* Enable the Internal High Speed oscillator (HSI48). */
 687:Drivers/STM32L0xx_HAL_Driver/Src/stm32l0xx_hal_rcc.c ****         __HAL_RCC_HSI48_ENABLE();
 688:Drivers/STM32L0xx_HAL_Driver/Src/stm32l0xx_hal_rcc.c **** 
 689:Drivers/STM32L0xx_HAL_Driver/Src/stm32l0xx_hal_rcc.c ****         /* Get Start Tick */
 690:Drivers/STM32L0xx_HAL_Driver/Src/stm32l0xx_hal_rcc.c ****         tickstart = HAL_GetTick();
 691:Drivers/STM32L0xx_HAL_Driver/Src/stm32l0xx_hal_rcc.c ****       
 692:Drivers/STM32L0xx_HAL_Driver/Src/stm32l0xx_hal_rcc.c ****         /* Wait till HSI48 is ready */  
 693:Drivers/STM32L0xx_HAL_Driver/Src/stm32l0xx_hal_rcc.c ****         while(__HAL_RCC_GET_FLAG(RCC_FLAG_HSI48RDY) == RESET)
 694:Drivers/STM32L0xx_HAL_Driver/Src/stm32l0xx_hal_rcc.c ****         {
 695:Drivers/STM32L0xx_HAL_Driver/Src/stm32l0xx_hal_rcc.c ****           if((HAL_GetTick() - tickstart) > HSI48_TIMEOUT_VALUE)
 696:Drivers/STM32L0xx_HAL_Driver/Src/stm32l0xx_hal_rcc.c ****           {
 697:Drivers/STM32L0xx_HAL_Driver/Src/stm32l0xx_hal_rcc.c ****             return HAL_TIMEOUT;
 698:Drivers/STM32L0xx_HAL_Driver/Src/stm32l0xx_hal_rcc.c ****           }
 699:Drivers/STM32L0xx_HAL_Driver/Src/stm32l0xx_hal_rcc.c ****         } 
 700:Drivers/STM32L0xx_HAL_Driver/Src/stm32l0xx_hal_rcc.c ****       }
 701:Drivers/STM32L0xx_HAL_Driver/Src/stm32l0xx_hal_rcc.c ****       else
 702:Drivers/STM32L0xx_HAL_Driver/Src/stm32l0xx_hal_rcc.c ****       {
 703:Drivers/STM32L0xx_HAL_Driver/Src/stm32l0xx_hal_rcc.c ****         /* Disable the Internal High Speed oscillator (HSI48). */
 704:Drivers/STM32L0xx_HAL_Driver/Src/stm32l0xx_hal_rcc.c ****         __HAL_RCC_HSI48_DISABLE();
 705:Drivers/STM32L0xx_HAL_Driver/Src/stm32l0xx_hal_rcc.c **** 
 706:Drivers/STM32L0xx_HAL_Driver/Src/stm32l0xx_hal_rcc.c ****         /* Get Start Tick */
 707:Drivers/STM32L0xx_HAL_Driver/Src/stm32l0xx_hal_rcc.c ****         tickstart = HAL_GetTick();
 708:Drivers/STM32L0xx_HAL_Driver/Src/stm32l0xx_hal_rcc.c ****       
 709:Drivers/STM32L0xx_HAL_Driver/Src/stm32l0xx_hal_rcc.c ****         /* Wait till HSI48 is ready */  
 710:Drivers/STM32L0xx_HAL_Driver/Src/stm32l0xx_hal_rcc.c ****         while(__HAL_RCC_GET_FLAG(RCC_FLAG_HSI48RDY) != RESET)
 711:Drivers/STM32L0xx_HAL_Driver/Src/stm32l0xx_hal_rcc.c ****         {
 712:Drivers/STM32L0xx_HAL_Driver/Src/stm32l0xx_hal_rcc.c ****           if((HAL_GetTick() - tickstart) > HSI48_TIMEOUT_VALUE)
 713:Drivers/STM32L0xx_HAL_Driver/Src/stm32l0xx_hal_rcc.c ****           {
 714:Drivers/STM32L0xx_HAL_Driver/Src/stm32l0xx_hal_rcc.c ****             return HAL_TIMEOUT;
 715:Drivers/STM32L0xx_HAL_Driver/Src/stm32l0xx_hal_rcc.c ****           }
 716:Drivers/STM32L0xx_HAL_Driver/Src/stm32l0xx_hal_rcc.c ****         }
 717:Drivers/STM32L0xx_HAL_Driver/Src/stm32l0xx_hal_rcc.c ****       }
 718:Drivers/STM32L0xx_HAL_Driver/Src/stm32l0xx_hal_rcc.c ****   }
ARM GAS  /tmp/ccWNGGuS.s 			page 14


 719:Drivers/STM32L0xx_HAL_Driver/Src/stm32l0xx_hal_rcc.c **** #endif /* RCC_HSI48_SUPPORT */
 720:Drivers/STM32L0xx_HAL_Driver/Src/stm32l0xx_hal_rcc.c ****        
 721:Drivers/STM32L0xx_HAL_Driver/Src/stm32l0xx_hal_rcc.c ****   /*-------------------------------- PLL Configuration -----------------------*/
 722:Drivers/STM32L0xx_HAL_Driver/Src/stm32l0xx_hal_rcc.c ****   /* Check the parameters */
 723:Drivers/STM32L0xx_HAL_Driver/Src/stm32l0xx_hal_rcc.c ****   assert_param(IS_RCC_PLL(RCC_OscInitStruct->PLL.PLLState));
 724:Drivers/STM32L0xx_HAL_Driver/Src/stm32l0xx_hal_rcc.c ****   if ((RCC_OscInitStruct->PLL.PLLState) != RCC_PLL_NONE)
 725:Drivers/STM32L0xx_HAL_Driver/Src/stm32l0xx_hal_rcc.c ****   {
 726:Drivers/STM32L0xx_HAL_Driver/Src/stm32l0xx_hal_rcc.c ****     /* Check if the PLL is used as system clock or not */
 727:Drivers/STM32L0xx_HAL_Driver/Src/stm32l0xx_hal_rcc.c ****     if(__HAL_RCC_GET_SYSCLK_SOURCE() != RCC_SYSCLKSOURCE_STATUS_PLLCLK)
 728:Drivers/STM32L0xx_HAL_Driver/Src/stm32l0xx_hal_rcc.c ****     { 
 729:Drivers/STM32L0xx_HAL_Driver/Src/stm32l0xx_hal_rcc.c ****       if((RCC_OscInitStruct->PLL.PLLState) == RCC_PLL_ON)
 730:Drivers/STM32L0xx_HAL_Driver/Src/stm32l0xx_hal_rcc.c ****       {
 731:Drivers/STM32L0xx_HAL_Driver/Src/stm32l0xx_hal_rcc.c ****         /* Check the parameters */
 732:Drivers/STM32L0xx_HAL_Driver/Src/stm32l0xx_hal_rcc.c ****         assert_param(IS_RCC_PLLSOURCE(RCC_OscInitStruct->PLL.PLLSource));
 733:Drivers/STM32L0xx_HAL_Driver/Src/stm32l0xx_hal_rcc.c ****         assert_param(IS_RCC_PLL_MUL(RCC_OscInitStruct->PLL.PLLMUL));
 734:Drivers/STM32L0xx_HAL_Driver/Src/stm32l0xx_hal_rcc.c ****         assert_param(IS_RCC_PLL_DIV(RCC_OscInitStruct->PLL.PLLDIV));
 735:Drivers/STM32L0xx_HAL_Driver/Src/stm32l0xx_hal_rcc.c ****   
 736:Drivers/STM32L0xx_HAL_Driver/Src/stm32l0xx_hal_rcc.c ****         /* Disable the main PLL. */
 737:Drivers/STM32L0xx_HAL_Driver/Src/stm32l0xx_hal_rcc.c ****         __HAL_RCC_PLL_DISABLE();
 738:Drivers/STM32L0xx_HAL_Driver/Src/stm32l0xx_hal_rcc.c ****         
 739:Drivers/STM32L0xx_HAL_Driver/Src/stm32l0xx_hal_rcc.c ****         /* Get Start Tick */
 740:Drivers/STM32L0xx_HAL_Driver/Src/stm32l0xx_hal_rcc.c ****         tickstart = HAL_GetTick();
 741:Drivers/STM32L0xx_HAL_Driver/Src/stm32l0xx_hal_rcc.c ****         
 742:Drivers/STM32L0xx_HAL_Driver/Src/stm32l0xx_hal_rcc.c ****         /* Wait till PLL is disabled */
 743:Drivers/STM32L0xx_HAL_Driver/Src/stm32l0xx_hal_rcc.c ****         while(__HAL_RCC_GET_FLAG(RCC_FLAG_PLLRDY)  != RESET)
 744:Drivers/STM32L0xx_HAL_Driver/Src/stm32l0xx_hal_rcc.c ****         {
 745:Drivers/STM32L0xx_HAL_Driver/Src/stm32l0xx_hal_rcc.c ****           if((HAL_GetTick() - tickstart ) > PLL_TIMEOUT_VALUE)
 746:Drivers/STM32L0xx_HAL_Driver/Src/stm32l0xx_hal_rcc.c ****           {
 747:Drivers/STM32L0xx_HAL_Driver/Src/stm32l0xx_hal_rcc.c ****             return HAL_TIMEOUT;
 748:Drivers/STM32L0xx_HAL_Driver/Src/stm32l0xx_hal_rcc.c ****           }
 749:Drivers/STM32L0xx_HAL_Driver/Src/stm32l0xx_hal_rcc.c ****         }
 750:Drivers/STM32L0xx_HAL_Driver/Src/stm32l0xx_hal_rcc.c **** 
 751:Drivers/STM32L0xx_HAL_Driver/Src/stm32l0xx_hal_rcc.c ****         /* Configure the main PLL clock source, multiplication and division factors. */
 752:Drivers/STM32L0xx_HAL_Driver/Src/stm32l0xx_hal_rcc.c ****         __HAL_RCC_PLL_CONFIG(RCC_OscInitStruct->PLL.PLLSource,
 753:Drivers/STM32L0xx_HAL_Driver/Src/stm32l0xx_hal_rcc.c ****                              RCC_OscInitStruct->PLL.PLLMUL,
 754:Drivers/STM32L0xx_HAL_Driver/Src/stm32l0xx_hal_rcc.c ****                              RCC_OscInitStruct->PLL.PLLDIV);
 755:Drivers/STM32L0xx_HAL_Driver/Src/stm32l0xx_hal_rcc.c ****         /* Enable the main PLL. */
 756:Drivers/STM32L0xx_HAL_Driver/Src/stm32l0xx_hal_rcc.c ****         __HAL_RCC_PLL_ENABLE();
 757:Drivers/STM32L0xx_HAL_Driver/Src/stm32l0xx_hal_rcc.c ****         
 758:Drivers/STM32L0xx_HAL_Driver/Src/stm32l0xx_hal_rcc.c ****         /* Get Start Tick */
 759:Drivers/STM32L0xx_HAL_Driver/Src/stm32l0xx_hal_rcc.c ****         tickstart = HAL_GetTick();
 760:Drivers/STM32L0xx_HAL_Driver/Src/stm32l0xx_hal_rcc.c ****         
 761:Drivers/STM32L0xx_HAL_Driver/Src/stm32l0xx_hal_rcc.c ****         /* Wait till PLL is ready */
 762:Drivers/STM32L0xx_HAL_Driver/Src/stm32l0xx_hal_rcc.c ****         while(__HAL_RCC_GET_FLAG(RCC_FLAG_PLLRDY)  == RESET)
 763:Drivers/STM32L0xx_HAL_Driver/Src/stm32l0xx_hal_rcc.c ****         {
 764:Drivers/STM32L0xx_HAL_Driver/Src/stm32l0xx_hal_rcc.c ****           if((HAL_GetTick() - tickstart ) > PLL_TIMEOUT_VALUE)
 765:Drivers/STM32L0xx_HAL_Driver/Src/stm32l0xx_hal_rcc.c ****           {
 766:Drivers/STM32L0xx_HAL_Driver/Src/stm32l0xx_hal_rcc.c ****             return HAL_TIMEOUT;
 767:Drivers/STM32L0xx_HAL_Driver/Src/stm32l0xx_hal_rcc.c ****           }
 768:Drivers/STM32L0xx_HAL_Driver/Src/stm32l0xx_hal_rcc.c ****         }
 769:Drivers/STM32L0xx_HAL_Driver/Src/stm32l0xx_hal_rcc.c ****       }
 770:Drivers/STM32L0xx_HAL_Driver/Src/stm32l0xx_hal_rcc.c ****       else
 771:Drivers/STM32L0xx_HAL_Driver/Src/stm32l0xx_hal_rcc.c ****       {
 772:Drivers/STM32L0xx_HAL_Driver/Src/stm32l0xx_hal_rcc.c ****         /* Disable the main PLL. */
 773:Drivers/STM32L0xx_HAL_Driver/Src/stm32l0xx_hal_rcc.c ****         __HAL_RCC_PLL_DISABLE();
 774:Drivers/STM32L0xx_HAL_Driver/Src/stm32l0xx_hal_rcc.c ****  
 775:Drivers/STM32L0xx_HAL_Driver/Src/stm32l0xx_hal_rcc.c ****         /* Get Start Tick */
ARM GAS  /tmp/ccWNGGuS.s 			page 15


 776:Drivers/STM32L0xx_HAL_Driver/Src/stm32l0xx_hal_rcc.c ****         tickstart = HAL_GetTick();
 777:Drivers/STM32L0xx_HAL_Driver/Src/stm32l0xx_hal_rcc.c ****         
 778:Drivers/STM32L0xx_HAL_Driver/Src/stm32l0xx_hal_rcc.c ****         /* Wait till PLL is disabled */  
 779:Drivers/STM32L0xx_HAL_Driver/Src/stm32l0xx_hal_rcc.c ****         while(__HAL_RCC_GET_FLAG(RCC_FLAG_PLLRDY)  != RESET)
 780:Drivers/STM32L0xx_HAL_Driver/Src/stm32l0xx_hal_rcc.c ****         {
 781:Drivers/STM32L0xx_HAL_Driver/Src/stm32l0xx_hal_rcc.c ****           if((HAL_GetTick() - tickstart ) > PLL_TIMEOUT_VALUE)
 782:Drivers/STM32L0xx_HAL_Driver/Src/stm32l0xx_hal_rcc.c ****           {
 783:Drivers/STM32L0xx_HAL_Driver/Src/stm32l0xx_hal_rcc.c ****             return HAL_TIMEOUT;
 784:Drivers/STM32L0xx_HAL_Driver/Src/stm32l0xx_hal_rcc.c ****           }
 785:Drivers/STM32L0xx_HAL_Driver/Src/stm32l0xx_hal_rcc.c ****         }
 786:Drivers/STM32L0xx_HAL_Driver/Src/stm32l0xx_hal_rcc.c ****       }
 787:Drivers/STM32L0xx_HAL_Driver/Src/stm32l0xx_hal_rcc.c ****     }
 788:Drivers/STM32L0xx_HAL_Driver/Src/stm32l0xx_hal_rcc.c ****     else
 789:Drivers/STM32L0xx_HAL_Driver/Src/stm32l0xx_hal_rcc.c ****     {
 790:Drivers/STM32L0xx_HAL_Driver/Src/stm32l0xx_hal_rcc.c ****       return HAL_ERROR;
 791:Drivers/STM32L0xx_HAL_Driver/Src/stm32l0xx_hal_rcc.c ****     }
 792:Drivers/STM32L0xx_HAL_Driver/Src/stm32l0xx_hal_rcc.c ****   }
 793:Drivers/STM32L0xx_HAL_Driver/Src/stm32l0xx_hal_rcc.c ****   
 794:Drivers/STM32L0xx_HAL_Driver/Src/stm32l0xx_hal_rcc.c ****   return HAL_OK;
 795:Drivers/STM32L0xx_HAL_Driver/Src/stm32l0xx_hal_rcc.c **** }
 796:Drivers/STM32L0xx_HAL_Driver/Src/stm32l0xx_hal_rcc.c **** 
 797:Drivers/STM32L0xx_HAL_Driver/Src/stm32l0xx_hal_rcc.c **** /**
 798:Drivers/STM32L0xx_HAL_Driver/Src/stm32l0xx_hal_rcc.c ****   * @brief  Initializes the CPU, AHB and APB buses clocks according to the specified 
 799:Drivers/STM32L0xx_HAL_Driver/Src/stm32l0xx_hal_rcc.c ****   *         parameters in the RCC_ClkInitStruct.
 800:Drivers/STM32L0xx_HAL_Driver/Src/stm32l0xx_hal_rcc.c ****   * @param  RCC_ClkInitStruct pointer to an RCC_OscInitTypeDef structure that
 801:Drivers/STM32L0xx_HAL_Driver/Src/stm32l0xx_hal_rcc.c ****   *         contains the configuration information for the RCC peripheral.
 802:Drivers/STM32L0xx_HAL_Driver/Src/stm32l0xx_hal_rcc.c ****   * @param  FLatency FLASH Latency                   
 803:Drivers/STM32L0xx_HAL_Driver/Src/stm32l0xx_hal_rcc.c ****   *          The value of this parameter depend on device used within the same series
 804:Drivers/STM32L0xx_HAL_Driver/Src/stm32l0xx_hal_rcc.c ****   * @note   The SystemCoreClock CMSIS variable is used to store System Clock Frequency 
 805:Drivers/STM32L0xx_HAL_Driver/Src/stm32l0xx_hal_rcc.c ****   *         and updated by @ref HAL_RCC_GetHCLKFreq() function called within this function
 806:Drivers/STM32L0xx_HAL_Driver/Src/stm32l0xx_hal_rcc.c ****   *
 807:Drivers/STM32L0xx_HAL_Driver/Src/stm32l0xx_hal_rcc.c ****   * @note   The MSI is used (enabled by hardware) as system clock source after
 808:Drivers/STM32L0xx_HAL_Driver/Src/stm32l0xx_hal_rcc.c ****   *         start-up from Reset, wake-up from STOP and STANDBY mode, or in case
 809:Drivers/STM32L0xx_HAL_Driver/Src/stm32l0xx_hal_rcc.c ****   *         of failure of the HSE used directly or indirectly as system clock
 810:Drivers/STM32L0xx_HAL_Driver/Src/stm32l0xx_hal_rcc.c ****   *         (if the Clock Security System CSS is enabled).
 811:Drivers/STM32L0xx_HAL_Driver/Src/stm32l0xx_hal_rcc.c ****   *           
 812:Drivers/STM32L0xx_HAL_Driver/Src/stm32l0xx_hal_rcc.c ****   * @note   A switch from one clock source to another occurs only if the target
 813:Drivers/STM32L0xx_HAL_Driver/Src/stm32l0xx_hal_rcc.c ****   *         clock source is ready (clock stable after start-up delay or PLL locked). 
 814:Drivers/STM32L0xx_HAL_Driver/Src/stm32l0xx_hal_rcc.c ****   *         If a clock source which is not yet ready is selected, the switch will
 815:Drivers/STM32L0xx_HAL_Driver/Src/stm32l0xx_hal_rcc.c ****   *         occur when the clock source will be ready. 
 816:Drivers/STM32L0xx_HAL_Driver/Src/stm32l0xx_hal_rcc.c ****   *         You can use @ref HAL_RCC_GetClockConfig() function to know which clock is
 817:Drivers/STM32L0xx_HAL_Driver/Src/stm32l0xx_hal_rcc.c ****   *         currently used as system clock source.
 818:Drivers/STM32L0xx_HAL_Driver/Src/stm32l0xx_hal_rcc.c ****   * @note   Depending on the device voltage range, the software has to set correctly
 819:Drivers/STM32L0xx_HAL_Driver/Src/stm32l0xx_hal_rcc.c ****   *         HPRE[3:0] bits to ensure that HCLK not exceed the maximum allowed frequency
 820:Drivers/STM32L0xx_HAL_Driver/Src/stm32l0xx_hal_rcc.c ****   *         (for more details refer to section above "Initialization/de-initialization functions")
 821:Drivers/STM32L0xx_HAL_Driver/Src/stm32l0xx_hal_rcc.c ****   * @retval HAL status
 822:Drivers/STM32L0xx_HAL_Driver/Src/stm32l0xx_hal_rcc.c ****   */
 823:Drivers/STM32L0xx_HAL_Driver/Src/stm32l0xx_hal_rcc.c **** HAL_StatusTypeDef HAL_RCC_ClockConfig(RCC_ClkInitTypeDef  *RCC_ClkInitStruct, uint32_t FLatency)
 824:Drivers/STM32L0xx_HAL_Driver/Src/stm32l0xx_hal_rcc.c **** {
 825:Drivers/STM32L0xx_HAL_Driver/Src/stm32l0xx_hal_rcc.c ****   uint32_t tickstart = 0U;
 826:Drivers/STM32L0xx_HAL_Driver/Src/stm32l0xx_hal_rcc.c ****   
 827:Drivers/STM32L0xx_HAL_Driver/Src/stm32l0xx_hal_rcc.c ****   /* Check the parameters */
 828:Drivers/STM32L0xx_HAL_Driver/Src/stm32l0xx_hal_rcc.c ****   assert_param(RCC_ClkInitStruct != NULL);
 829:Drivers/STM32L0xx_HAL_Driver/Src/stm32l0xx_hal_rcc.c ****   assert_param(IS_RCC_CLOCKTYPE(RCC_ClkInitStruct->ClockType));
 830:Drivers/STM32L0xx_HAL_Driver/Src/stm32l0xx_hal_rcc.c ****   assert_param(IS_FLASH_LATENCY(FLatency));
 831:Drivers/STM32L0xx_HAL_Driver/Src/stm32l0xx_hal_rcc.c **** 
 832:Drivers/STM32L0xx_HAL_Driver/Src/stm32l0xx_hal_rcc.c ****   /* To correctly read data from FLASH memory, the number of wait states (LATENCY) 
ARM GAS  /tmp/ccWNGGuS.s 			page 16


 833:Drivers/STM32L0xx_HAL_Driver/Src/stm32l0xx_hal_rcc.c ****   must be correctly programmed according to the frequency of the CPU clock 
 834:Drivers/STM32L0xx_HAL_Driver/Src/stm32l0xx_hal_rcc.c ****   (HCLK) and the supply voltage of the device. */
 835:Drivers/STM32L0xx_HAL_Driver/Src/stm32l0xx_hal_rcc.c **** 
 836:Drivers/STM32L0xx_HAL_Driver/Src/stm32l0xx_hal_rcc.c ****   /* Increasing the number of wait states because of higher CPU frequency */
 837:Drivers/STM32L0xx_HAL_Driver/Src/stm32l0xx_hal_rcc.c ****   if(FLatency > (FLASH->ACR & FLASH_ACR_LATENCY))
 838:Drivers/STM32L0xx_HAL_Driver/Src/stm32l0xx_hal_rcc.c ****   {    
 839:Drivers/STM32L0xx_HAL_Driver/Src/stm32l0xx_hal_rcc.c ****     /* Program the new number of wait states to the LATENCY bits in the FLASH_ACR register */
 840:Drivers/STM32L0xx_HAL_Driver/Src/stm32l0xx_hal_rcc.c ****     __HAL_FLASH_SET_LATENCY(FLatency);
 841:Drivers/STM32L0xx_HAL_Driver/Src/stm32l0xx_hal_rcc.c ****     
 842:Drivers/STM32L0xx_HAL_Driver/Src/stm32l0xx_hal_rcc.c ****     /* Check that the new number of wait states is taken into account to access the Flash
 843:Drivers/STM32L0xx_HAL_Driver/Src/stm32l0xx_hal_rcc.c ****     memory by reading the FLASH_ACR register */
 844:Drivers/STM32L0xx_HAL_Driver/Src/stm32l0xx_hal_rcc.c ****     if((FLASH->ACR & FLASH_ACR_LATENCY) != FLatency)
 845:Drivers/STM32L0xx_HAL_Driver/Src/stm32l0xx_hal_rcc.c ****     {
 846:Drivers/STM32L0xx_HAL_Driver/Src/stm32l0xx_hal_rcc.c ****       return HAL_ERROR;
 847:Drivers/STM32L0xx_HAL_Driver/Src/stm32l0xx_hal_rcc.c ****     }
 848:Drivers/STM32L0xx_HAL_Driver/Src/stm32l0xx_hal_rcc.c ****   }
 849:Drivers/STM32L0xx_HAL_Driver/Src/stm32l0xx_hal_rcc.c **** 
 850:Drivers/STM32L0xx_HAL_Driver/Src/stm32l0xx_hal_rcc.c ****   /*-------------------------- HCLK Configuration --------------------------*/
 851:Drivers/STM32L0xx_HAL_Driver/Src/stm32l0xx_hal_rcc.c ****   if(((RCC_ClkInitStruct->ClockType) & RCC_CLOCKTYPE_HCLK) == RCC_CLOCKTYPE_HCLK)
 852:Drivers/STM32L0xx_HAL_Driver/Src/stm32l0xx_hal_rcc.c ****   {
 853:Drivers/STM32L0xx_HAL_Driver/Src/stm32l0xx_hal_rcc.c ****     assert_param(IS_RCC_HCLK(RCC_ClkInitStruct->AHBCLKDivider));
 854:Drivers/STM32L0xx_HAL_Driver/Src/stm32l0xx_hal_rcc.c ****     MODIFY_REG(RCC->CFGR, RCC_CFGR_HPRE, RCC_ClkInitStruct->AHBCLKDivider);
 855:Drivers/STM32L0xx_HAL_Driver/Src/stm32l0xx_hal_rcc.c ****   }
 856:Drivers/STM32L0xx_HAL_Driver/Src/stm32l0xx_hal_rcc.c **** 
 857:Drivers/STM32L0xx_HAL_Driver/Src/stm32l0xx_hal_rcc.c ****   /*------------------------- SYSCLK Configuration ---------------------------*/ 
 858:Drivers/STM32L0xx_HAL_Driver/Src/stm32l0xx_hal_rcc.c ****   if(((RCC_ClkInitStruct->ClockType) & RCC_CLOCKTYPE_SYSCLK) == RCC_CLOCKTYPE_SYSCLK)
 859:Drivers/STM32L0xx_HAL_Driver/Src/stm32l0xx_hal_rcc.c ****   {    
 860:Drivers/STM32L0xx_HAL_Driver/Src/stm32l0xx_hal_rcc.c ****     assert_param(IS_RCC_SYSCLKSOURCE(RCC_ClkInitStruct->SYSCLKSource));
 861:Drivers/STM32L0xx_HAL_Driver/Src/stm32l0xx_hal_rcc.c ****     
 862:Drivers/STM32L0xx_HAL_Driver/Src/stm32l0xx_hal_rcc.c ****     /* HSE is selected as System Clock Source */
 863:Drivers/STM32L0xx_HAL_Driver/Src/stm32l0xx_hal_rcc.c ****     if(RCC_ClkInitStruct->SYSCLKSource == RCC_SYSCLKSOURCE_HSE)
 864:Drivers/STM32L0xx_HAL_Driver/Src/stm32l0xx_hal_rcc.c ****     {
 865:Drivers/STM32L0xx_HAL_Driver/Src/stm32l0xx_hal_rcc.c ****       /* Check the HSE ready flag */  
 866:Drivers/STM32L0xx_HAL_Driver/Src/stm32l0xx_hal_rcc.c ****       if(__HAL_RCC_GET_FLAG(RCC_FLAG_HSERDY) == RESET)
 867:Drivers/STM32L0xx_HAL_Driver/Src/stm32l0xx_hal_rcc.c ****       {
 868:Drivers/STM32L0xx_HAL_Driver/Src/stm32l0xx_hal_rcc.c ****         return HAL_ERROR;
 869:Drivers/STM32L0xx_HAL_Driver/Src/stm32l0xx_hal_rcc.c ****       }
 870:Drivers/STM32L0xx_HAL_Driver/Src/stm32l0xx_hal_rcc.c ****     }
 871:Drivers/STM32L0xx_HAL_Driver/Src/stm32l0xx_hal_rcc.c ****     /* PLL is selected as System Clock Source */
 872:Drivers/STM32L0xx_HAL_Driver/Src/stm32l0xx_hal_rcc.c ****     else if(RCC_ClkInitStruct->SYSCLKSource == RCC_SYSCLKSOURCE_PLLCLK)
 873:Drivers/STM32L0xx_HAL_Driver/Src/stm32l0xx_hal_rcc.c ****     {
 874:Drivers/STM32L0xx_HAL_Driver/Src/stm32l0xx_hal_rcc.c ****       /* Check the PLL ready flag */  
 875:Drivers/STM32L0xx_HAL_Driver/Src/stm32l0xx_hal_rcc.c ****       if(__HAL_RCC_GET_FLAG(RCC_FLAG_PLLRDY) == RESET)
 876:Drivers/STM32L0xx_HAL_Driver/Src/stm32l0xx_hal_rcc.c ****       {
 877:Drivers/STM32L0xx_HAL_Driver/Src/stm32l0xx_hal_rcc.c ****         return HAL_ERROR;
 878:Drivers/STM32L0xx_HAL_Driver/Src/stm32l0xx_hal_rcc.c ****       }
 879:Drivers/STM32L0xx_HAL_Driver/Src/stm32l0xx_hal_rcc.c ****     }
 880:Drivers/STM32L0xx_HAL_Driver/Src/stm32l0xx_hal_rcc.c ****     /* HSI is selected as System Clock Source */
 881:Drivers/STM32L0xx_HAL_Driver/Src/stm32l0xx_hal_rcc.c ****     else if(RCC_ClkInitStruct->SYSCLKSource == RCC_SYSCLKSOURCE_HSI)
 882:Drivers/STM32L0xx_HAL_Driver/Src/stm32l0xx_hal_rcc.c ****     {
 883:Drivers/STM32L0xx_HAL_Driver/Src/stm32l0xx_hal_rcc.c ****       /* Check the HSI ready flag */  
 884:Drivers/STM32L0xx_HAL_Driver/Src/stm32l0xx_hal_rcc.c ****       if(__HAL_RCC_GET_FLAG(RCC_FLAG_HSIRDY) == RESET)
 885:Drivers/STM32L0xx_HAL_Driver/Src/stm32l0xx_hal_rcc.c ****       {
 886:Drivers/STM32L0xx_HAL_Driver/Src/stm32l0xx_hal_rcc.c ****         return HAL_ERROR;
 887:Drivers/STM32L0xx_HAL_Driver/Src/stm32l0xx_hal_rcc.c ****       }
 888:Drivers/STM32L0xx_HAL_Driver/Src/stm32l0xx_hal_rcc.c ****     }
 889:Drivers/STM32L0xx_HAL_Driver/Src/stm32l0xx_hal_rcc.c ****     /* MSI is selected as System Clock Source */
ARM GAS  /tmp/ccWNGGuS.s 			page 17


 890:Drivers/STM32L0xx_HAL_Driver/Src/stm32l0xx_hal_rcc.c ****     else
 891:Drivers/STM32L0xx_HAL_Driver/Src/stm32l0xx_hal_rcc.c ****     {
 892:Drivers/STM32L0xx_HAL_Driver/Src/stm32l0xx_hal_rcc.c ****       /* Check the MSI ready flag */  
 893:Drivers/STM32L0xx_HAL_Driver/Src/stm32l0xx_hal_rcc.c ****       if(__HAL_RCC_GET_FLAG(RCC_FLAG_MSIRDY) == RESET)
 894:Drivers/STM32L0xx_HAL_Driver/Src/stm32l0xx_hal_rcc.c ****       {
 895:Drivers/STM32L0xx_HAL_Driver/Src/stm32l0xx_hal_rcc.c ****         return HAL_ERROR;
 896:Drivers/STM32L0xx_HAL_Driver/Src/stm32l0xx_hal_rcc.c ****       }
 897:Drivers/STM32L0xx_HAL_Driver/Src/stm32l0xx_hal_rcc.c ****     }
 898:Drivers/STM32L0xx_HAL_Driver/Src/stm32l0xx_hal_rcc.c ****     __HAL_RCC_SYSCLK_CONFIG(RCC_ClkInitStruct->SYSCLKSource);
 899:Drivers/STM32L0xx_HAL_Driver/Src/stm32l0xx_hal_rcc.c **** 
 900:Drivers/STM32L0xx_HAL_Driver/Src/stm32l0xx_hal_rcc.c ****     /* Get Start Tick */
 901:Drivers/STM32L0xx_HAL_Driver/Src/stm32l0xx_hal_rcc.c ****     tickstart = HAL_GetTick();
 902:Drivers/STM32L0xx_HAL_Driver/Src/stm32l0xx_hal_rcc.c ****     
 903:Drivers/STM32L0xx_HAL_Driver/Src/stm32l0xx_hal_rcc.c ****     if(RCC_ClkInitStruct->SYSCLKSource == RCC_SYSCLKSOURCE_HSE)
 904:Drivers/STM32L0xx_HAL_Driver/Src/stm32l0xx_hal_rcc.c ****     {
 905:Drivers/STM32L0xx_HAL_Driver/Src/stm32l0xx_hal_rcc.c ****       while (__HAL_RCC_GET_SYSCLK_SOURCE() != RCC_SYSCLKSOURCE_STATUS_HSE)
 906:Drivers/STM32L0xx_HAL_Driver/Src/stm32l0xx_hal_rcc.c ****       {
 907:Drivers/STM32L0xx_HAL_Driver/Src/stm32l0xx_hal_rcc.c ****         if((HAL_GetTick() - tickstart ) > CLOCKSWITCH_TIMEOUT_VALUE)
 908:Drivers/STM32L0xx_HAL_Driver/Src/stm32l0xx_hal_rcc.c ****         {
 909:Drivers/STM32L0xx_HAL_Driver/Src/stm32l0xx_hal_rcc.c ****           return HAL_TIMEOUT;
 910:Drivers/STM32L0xx_HAL_Driver/Src/stm32l0xx_hal_rcc.c ****         }
 911:Drivers/STM32L0xx_HAL_Driver/Src/stm32l0xx_hal_rcc.c ****       }
 912:Drivers/STM32L0xx_HAL_Driver/Src/stm32l0xx_hal_rcc.c ****     }
 913:Drivers/STM32L0xx_HAL_Driver/Src/stm32l0xx_hal_rcc.c ****     else if(RCC_ClkInitStruct->SYSCLKSource == RCC_SYSCLKSOURCE_PLLCLK)
 914:Drivers/STM32L0xx_HAL_Driver/Src/stm32l0xx_hal_rcc.c ****     {
 915:Drivers/STM32L0xx_HAL_Driver/Src/stm32l0xx_hal_rcc.c ****       while (__HAL_RCC_GET_SYSCLK_SOURCE() != RCC_SYSCLKSOURCE_STATUS_PLLCLK)
 916:Drivers/STM32L0xx_HAL_Driver/Src/stm32l0xx_hal_rcc.c ****       {
 917:Drivers/STM32L0xx_HAL_Driver/Src/stm32l0xx_hal_rcc.c ****         if((HAL_GetTick() - tickstart ) > CLOCKSWITCH_TIMEOUT_VALUE)
 918:Drivers/STM32L0xx_HAL_Driver/Src/stm32l0xx_hal_rcc.c ****         {
 919:Drivers/STM32L0xx_HAL_Driver/Src/stm32l0xx_hal_rcc.c ****           return HAL_TIMEOUT;
 920:Drivers/STM32L0xx_HAL_Driver/Src/stm32l0xx_hal_rcc.c ****         }
 921:Drivers/STM32L0xx_HAL_Driver/Src/stm32l0xx_hal_rcc.c ****       }
 922:Drivers/STM32L0xx_HAL_Driver/Src/stm32l0xx_hal_rcc.c ****     }
 923:Drivers/STM32L0xx_HAL_Driver/Src/stm32l0xx_hal_rcc.c ****     else if(RCC_ClkInitStruct->SYSCLKSource == RCC_SYSCLKSOURCE_HSI)
 924:Drivers/STM32L0xx_HAL_Driver/Src/stm32l0xx_hal_rcc.c ****     {
 925:Drivers/STM32L0xx_HAL_Driver/Src/stm32l0xx_hal_rcc.c ****       while (__HAL_RCC_GET_SYSCLK_SOURCE() != RCC_SYSCLKSOURCE_STATUS_HSI)
 926:Drivers/STM32L0xx_HAL_Driver/Src/stm32l0xx_hal_rcc.c ****       {
 927:Drivers/STM32L0xx_HAL_Driver/Src/stm32l0xx_hal_rcc.c ****         if((HAL_GetTick() - tickstart ) > CLOCKSWITCH_TIMEOUT_VALUE)
 928:Drivers/STM32L0xx_HAL_Driver/Src/stm32l0xx_hal_rcc.c ****         {
 929:Drivers/STM32L0xx_HAL_Driver/Src/stm32l0xx_hal_rcc.c ****           return HAL_TIMEOUT;
 930:Drivers/STM32L0xx_HAL_Driver/Src/stm32l0xx_hal_rcc.c ****         }
 931:Drivers/STM32L0xx_HAL_Driver/Src/stm32l0xx_hal_rcc.c ****       }
 932:Drivers/STM32L0xx_HAL_Driver/Src/stm32l0xx_hal_rcc.c ****     }      
 933:Drivers/STM32L0xx_HAL_Driver/Src/stm32l0xx_hal_rcc.c ****     else
 934:Drivers/STM32L0xx_HAL_Driver/Src/stm32l0xx_hal_rcc.c ****     {
 935:Drivers/STM32L0xx_HAL_Driver/Src/stm32l0xx_hal_rcc.c ****       while(__HAL_RCC_GET_SYSCLK_SOURCE() != RCC_SYSCLKSOURCE_STATUS_MSI)
 936:Drivers/STM32L0xx_HAL_Driver/Src/stm32l0xx_hal_rcc.c ****       {
 937:Drivers/STM32L0xx_HAL_Driver/Src/stm32l0xx_hal_rcc.c ****         if((HAL_GetTick() - tickstart ) > CLOCKSWITCH_TIMEOUT_VALUE)
 938:Drivers/STM32L0xx_HAL_Driver/Src/stm32l0xx_hal_rcc.c ****         {
 939:Drivers/STM32L0xx_HAL_Driver/Src/stm32l0xx_hal_rcc.c ****           return HAL_TIMEOUT;
 940:Drivers/STM32L0xx_HAL_Driver/Src/stm32l0xx_hal_rcc.c ****         }
 941:Drivers/STM32L0xx_HAL_Driver/Src/stm32l0xx_hal_rcc.c ****       }
 942:Drivers/STM32L0xx_HAL_Driver/Src/stm32l0xx_hal_rcc.c ****     }
 943:Drivers/STM32L0xx_HAL_Driver/Src/stm32l0xx_hal_rcc.c ****   }    
 944:Drivers/STM32L0xx_HAL_Driver/Src/stm32l0xx_hal_rcc.c ****   /* Decreasing the number of wait states because of lower CPU frequency */
 945:Drivers/STM32L0xx_HAL_Driver/Src/stm32l0xx_hal_rcc.c ****   if(FLatency < (FLASH->ACR & FLASH_ACR_LATENCY))
 946:Drivers/STM32L0xx_HAL_Driver/Src/stm32l0xx_hal_rcc.c ****   {    
ARM GAS  /tmp/ccWNGGuS.s 			page 18


 947:Drivers/STM32L0xx_HAL_Driver/Src/stm32l0xx_hal_rcc.c ****     /* Program the new number of wait states to the LATENCY bits in the FLASH_ACR register */
 948:Drivers/STM32L0xx_HAL_Driver/Src/stm32l0xx_hal_rcc.c ****     __HAL_FLASH_SET_LATENCY(FLatency);
 949:Drivers/STM32L0xx_HAL_Driver/Src/stm32l0xx_hal_rcc.c ****     
 950:Drivers/STM32L0xx_HAL_Driver/Src/stm32l0xx_hal_rcc.c ****     /* Check that the new number of wait states is taken into account to access the Flash
 951:Drivers/STM32L0xx_HAL_Driver/Src/stm32l0xx_hal_rcc.c ****     memory by reading the FLASH_ACR register */
 952:Drivers/STM32L0xx_HAL_Driver/Src/stm32l0xx_hal_rcc.c ****     if((FLASH->ACR & FLASH_ACR_LATENCY) != FLatency)
 953:Drivers/STM32L0xx_HAL_Driver/Src/stm32l0xx_hal_rcc.c ****     {
 954:Drivers/STM32L0xx_HAL_Driver/Src/stm32l0xx_hal_rcc.c ****       return HAL_ERROR;
 955:Drivers/STM32L0xx_HAL_Driver/Src/stm32l0xx_hal_rcc.c ****     }
 956:Drivers/STM32L0xx_HAL_Driver/Src/stm32l0xx_hal_rcc.c ****   }    
 957:Drivers/STM32L0xx_HAL_Driver/Src/stm32l0xx_hal_rcc.c **** 
 958:Drivers/STM32L0xx_HAL_Driver/Src/stm32l0xx_hal_rcc.c ****   /*-------------------------- PCLK1 Configuration ---------------------------*/ 
 959:Drivers/STM32L0xx_HAL_Driver/Src/stm32l0xx_hal_rcc.c ****   if(((RCC_ClkInitStruct->ClockType) & RCC_CLOCKTYPE_PCLK1) == RCC_CLOCKTYPE_PCLK1)
 960:Drivers/STM32L0xx_HAL_Driver/Src/stm32l0xx_hal_rcc.c ****   {
 961:Drivers/STM32L0xx_HAL_Driver/Src/stm32l0xx_hal_rcc.c ****     assert_param(IS_RCC_PCLK(RCC_ClkInitStruct->APB1CLKDivider));
 962:Drivers/STM32L0xx_HAL_Driver/Src/stm32l0xx_hal_rcc.c ****     MODIFY_REG(RCC->CFGR, RCC_CFGR_PPRE1, RCC_ClkInitStruct->APB1CLKDivider);
 963:Drivers/STM32L0xx_HAL_Driver/Src/stm32l0xx_hal_rcc.c ****   }
 964:Drivers/STM32L0xx_HAL_Driver/Src/stm32l0xx_hal_rcc.c ****   
 965:Drivers/STM32L0xx_HAL_Driver/Src/stm32l0xx_hal_rcc.c ****   /*-------------------------- PCLK2 Configuration ---------------------------*/ 
 966:Drivers/STM32L0xx_HAL_Driver/Src/stm32l0xx_hal_rcc.c ****   if(((RCC_ClkInitStruct->ClockType) & RCC_CLOCKTYPE_PCLK2) == RCC_CLOCKTYPE_PCLK2)
 967:Drivers/STM32L0xx_HAL_Driver/Src/stm32l0xx_hal_rcc.c ****   {
 968:Drivers/STM32L0xx_HAL_Driver/Src/stm32l0xx_hal_rcc.c ****     assert_param(IS_RCC_PCLK(RCC_ClkInitStruct->APB2CLKDivider));
 969:Drivers/STM32L0xx_HAL_Driver/Src/stm32l0xx_hal_rcc.c ****     MODIFY_REG(RCC->CFGR, RCC_CFGR_PPRE2, ((RCC_ClkInitStruct->APB2CLKDivider) << 3));
 970:Drivers/STM32L0xx_HAL_Driver/Src/stm32l0xx_hal_rcc.c ****   }
 971:Drivers/STM32L0xx_HAL_Driver/Src/stm32l0xx_hal_rcc.c ****  
 972:Drivers/STM32L0xx_HAL_Driver/Src/stm32l0xx_hal_rcc.c ****   /* Update the SystemCoreClock global variable */
 973:Drivers/STM32L0xx_HAL_Driver/Src/stm32l0xx_hal_rcc.c ****   SystemCoreClock = HAL_RCC_GetSysClockFreq() >> AHBPrescTable[(RCC->CFGR & RCC_CFGR_HPRE)>> RCC_CF
 974:Drivers/STM32L0xx_HAL_Driver/Src/stm32l0xx_hal_rcc.c **** 
 975:Drivers/STM32L0xx_HAL_Driver/Src/stm32l0xx_hal_rcc.c ****   /* Configure the source of time base considering new system clocks settings*/
 976:Drivers/STM32L0xx_HAL_Driver/Src/stm32l0xx_hal_rcc.c ****   HAL_InitTick (TICK_INT_PRIORITY);
 977:Drivers/STM32L0xx_HAL_Driver/Src/stm32l0xx_hal_rcc.c ****   
 978:Drivers/STM32L0xx_HAL_Driver/Src/stm32l0xx_hal_rcc.c ****   return HAL_OK;
 979:Drivers/STM32L0xx_HAL_Driver/Src/stm32l0xx_hal_rcc.c **** }
 980:Drivers/STM32L0xx_HAL_Driver/Src/stm32l0xx_hal_rcc.c **** 
 981:Drivers/STM32L0xx_HAL_Driver/Src/stm32l0xx_hal_rcc.c **** /**
 982:Drivers/STM32L0xx_HAL_Driver/Src/stm32l0xx_hal_rcc.c ****   * @}
 983:Drivers/STM32L0xx_HAL_Driver/Src/stm32l0xx_hal_rcc.c ****   */
 984:Drivers/STM32L0xx_HAL_Driver/Src/stm32l0xx_hal_rcc.c **** 
 985:Drivers/STM32L0xx_HAL_Driver/Src/stm32l0xx_hal_rcc.c **** /** @defgroup RCC_Exported_Functions_Group2 Peripheral Control functions
 986:Drivers/STM32L0xx_HAL_Driver/Src/stm32l0xx_hal_rcc.c ****   *  @brief   RCC clocks control functions
 987:Drivers/STM32L0xx_HAL_Driver/Src/stm32l0xx_hal_rcc.c ****   *
 988:Drivers/STM32L0xx_HAL_Driver/Src/stm32l0xx_hal_rcc.c ****   @verbatim   
 989:Drivers/STM32L0xx_HAL_Driver/Src/stm32l0xx_hal_rcc.c ****   ===============================================================================
 990:Drivers/STM32L0xx_HAL_Driver/Src/stm32l0xx_hal_rcc.c ****                   ##### Peripheral Control functions #####
 991:Drivers/STM32L0xx_HAL_Driver/Src/stm32l0xx_hal_rcc.c ****   ===============================================================================  
 992:Drivers/STM32L0xx_HAL_Driver/Src/stm32l0xx_hal_rcc.c ****     [..]
 993:Drivers/STM32L0xx_HAL_Driver/Src/stm32l0xx_hal_rcc.c ****     This subsection provides a set of functions allowing to control the RCC Clocks 
 994:Drivers/STM32L0xx_HAL_Driver/Src/stm32l0xx_hal_rcc.c ****     frequencies.
 995:Drivers/STM32L0xx_HAL_Driver/Src/stm32l0xx_hal_rcc.c **** 
 996:Drivers/STM32L0xx_HAL_Driver/Src/stm32l0xx_hal_rcc.c ****   @endverbatim
 997:Drivers/STM32L0xx_HAL_Driver/Src/stm32l0xx_hal_rcc.c ****   * @{
 998:Drivers/STM32L0xx_HAL_Driver/Src/stm32l0xx_hal_rcc.c ****   */
 999:Drivers/STM32L0xx_HAL_Driver/Src/stm32l0xx_hal_rcc.c **** 
1000:Drivers/STM32L0xx_HAL_Driver/Src/stm32l0xx_hal_rcc.c **** /**
1001:Drivers/STM32L0xx_HAL_Driver/Src/stm32l0xx_hal_rcc.c ****   * @brief  Selects the clock source to output on MCO pin.
1002:Drivers/STM32L0xx_HAL_Driver/Src/stm32l0xx_hal_rcc.c ****   * @note   MCO pin should be configured in alternate function mode.
1003:Drivers/STM32L0xx_HAL_Driver/Src/stm32l0xx_hal_rcc.c ****   * @param  RCC_MCOx specifies the output direction for the clock source.
ARM GAS  /tmp/ccWNGGuS.s 			page 19


1004:Drivers/STM32L0xx_HAL_Driver/Src/stm32l0xx_hal_rcc.c ****   *          This parameter can be one of the following values:
1005:Drivers/STM32L0xx_HAL_Driver/Src/stm32l0xx_hal_rcc.c ****   *            @arg @ref RCC_MCO1 Clock source to output on MCO1 pin(PA8).
1006:Drivers/STM32L0xx_HAL_Driver/Src/stm32l0xx_hal_rcc.c ****   *            @arg @ref RCC_MCO2 Clock source to output on MCO2 pin(PA9).
1007:Drivers/STM32L0xx_HAL_Driver/Src/stm32l0xx_hal_rcc.c ****   @if STM32L031xx
1008:Drivers/STM32L0xx_HAL_Driver/Src/stm32l0xx_hal_rcc.c ****   *            @arg @ref RCC_MCO3 Clock source to output on MCO3 pin(PB13)
1009:Drivers/STM32L0xx_HAL_Driver/Src/stm32l0xx_hal_rcc.c ****   @elseif STM32L041xx
1010:Drivers/STM32L0xx_HAL_Driver/Src/stm32l0xx_hal_rcc.c ****   *            @arg @ref RCC_MCO3 Clock source to output on MCO3 pin(PB13)
1011:Drivers/STM32L0xx_HAL_Driver/Src/stm32l0xx_hal_rcc.c ****   @elseif STM32L073xx
1012:Drivers/STM32L0xx_HAL_Driver/Src/stm32l0xx_hal_rcc.c ****   *            @arg @ref RCC_MCO3 Clock source to output on MCO3 pin(PB13)
1013:Drivers/STM32L0xx_HAL_Driver/Src/stm32l0xx_hal_rcc.c ****   @elseif STM32L083xx
1014:Drivers/STM32L0xx_HAL_Driver/Src/stm32l0xx_hal_rcc.c ****   *            @arg @ref RCC_MCO3 Clock source to output on MCO3 pin(PB13)
1015:Drivers/STM32L0xx_HAL_Driver/Src/stm32l0xx_hal_rcc.c ****   @elseif STM32L072xx
1016:Drivers/STM32L0xx_HAL_Driver/Src/stm32l0xx_hal_rcc.c ****   *            @arg @ref RCC_MCO3 Clock source to output on MCO3 pin(PB13)
1017:Drivers/STM32L0xx_HAL_Driver/Src/stm32l0xx_hal_rcc.c ****   @elseif STM32L082xx
1018:Drivers/STM32L0xx_HAL_Driver/Src/stm32l0xx_hal_rcc.c ****   *            @arg @ref RCC_MCO3 Clock source to output on MCO3 pin(PB13)
1019:Drivers/STM32L0xx_HAL_Driver/Src/stm32l0xx_hal_rcc.c ****   @elseif STM32L071xx
1020:Drivers/STM32L0xx_HAL_Driver/Src/stm32l0xx_hal_rcc.c ****   *            @arg @ref RCC_MCO3 Clock source to output on MCO3 pin(PB13)
1021:Drivers/STM32L0xx_HAL_Driver/Src/stm32l0xx_hal_rcc.c ****   @elseif STM32L081xx
1022:Drivers/STM32L0xx_HAL_Driver/Src/stm32l0xx_hal_rcc.c ****   *            @arg @ref RCC_MCO3 Clock source to output on MCO3 pin(PB13)
1023:Drivers/STM32L0xx_HAL_Driver/Src/stm32l0xx_hal_rcc.c ****   @endif
1024:Drivers/STM32L0xx_HAL_Driver/Src/stm32l0xx_hal_rcc.c ****   * @param  RCC_MCOSource specifies the clock source to output.
1025:Drivers/STM32L0xx_HAL_Driver/Src/stm32l0xx_hal_rcc.c ****   *          This parameter can be one of the following values:
1026:Drivers/STM32L0xx_HAL_Driver/Src/stm32l0xx_hal_rcc.c ****   *            @arg @ref RCC_MCO1SOURCE_NOCLOCK     No clock selected as MCO clock
1027:Drivers/STM32L0xx_HAL_Driver/Src/stm32l0xx_hal_rcc.c ****   *            @arg @ref RCC_MCO1SOURCE_SYSCLK      System clock selected as MCO clock
1028:Drivers/STM32L0xx_HAL_Driver/Src/stm32l0xx_hal_rcc.c ****   *            @arg @ref RCC_MCO1SOURCE_HSI         HSI selected as MCO clock
1029:Drivers/STM32L0xx_HAL_Driver/Src/stm32l0xx_hal_rcc.c ****   *            @arg @ref RCC_MCO1SOURCE_HSE         HSE selected as MCO clock
1030:Drivers/STM32L0xx_HAL_Driver/Src/stm32l0xx_hal_rcc.c ****   *            @arg @ref RCC_MCO1SOURCE_MSI         MSI oscillator clock selected as MCO clock 
1031:Drivers/STM32L0xx_HAL_Driver/Src/stm32l0xx_hal_rcc.c ****   *            @arg @ref RCC_MCO1SOURCE_PLLCLK      PLL clock selected as MCO clock
1032:Drivers/STM32L0xx_HAL_Driver/Src/stm32l0xx_hal_rcc.c ****   *            @arg @ref RCC_MCO1SOURCE_LSI         LSI clock selected as MCO clock
1033:Drivers/STM32L0xx_HAL_Driver/Src/stm32l0xx_hal_rcc.c ****   *            @arg @ref RCC_MCO1SOURCE_LSE         LSE clock selected as MCO clock
1034:Drivers/STM32L0xx_HAL_Driver/Src/stm32l0xx_hal_rcc.c ****   @if STM32L052xx
1035:Drivers/STM32L0xx_HAL_Driver/Src/stm32l0xx_hal_rcc.c ****   *            @arg @ref RCC_MCO1SOURCE_HSI48       HSI48 clock selected as MCO clock
1036:Drivers/STM32L0xx_HAL_Driver/Src/stm32l0xx_hal_rcc.c ****   @elseif STM32L053xx
1037:Drivers/STM32L0xx_HAL_Driver/Src/stm32l0xx_hal_rcc.c ****   *            @arg @ref RCC_MCO1SOURCE_HSI48       HSI48 clock selected as MCO clock
1038:Drivers/STM32L0xx_HAL_Driver/Src/stm32l0xx_hal_rcc.c ****   @elseif STM32L062xx
1039:Drivers/STM32L0xx_HAL_Driver/Src/stm32l0xx_hal_rcc.c ****   *            @arg @ref RCC_MCO1SOURCE_HSI48       HSI48 clock selected as MCO clock
1040:Drivers/STM32L0xx_HAL_Driver/Src/stm32l0xx_hal_rcc.c ****   @elseif STM32L063xx
1041:Drivers/STM32L0xx_HAL_Driver/Src/stm32l0xx_hal_rcc.c ****   *            @arg @ref RCC_MCO1SOURCE_HSI48       HSI48 clock selected as MCO clock
1042:Drivers/STM32L0xx_HAL_Driver/Src/stm32l0xx_hal_rcc.c ****   @elseif STM32L072xx
1043:Drivers/STM32L0xx_HAL_Driver/Src/stm32l0xx_hal_rcc.c ****   *            @arg @ref RCC_MCO1SOURCE_HSI48       HSI48 clock selected as MCO clock
1044:Drivers/STM32L0xx_HAL_Driver/Src/stm32l0xx_hal_rcc.c ****   @elseif STM32L073xx
1045:Drivers/STM32L0xx_HAL_Driver/Src/stm32l0xx_hal_rcc.c ****   *            @arg @ref RCC_MCO1SOURCE_HSI48       HSI48 clock selected as MCO clock
1046:Drivers/STM32L0xx_HAL_Driver/Src/stm32l0xx_hal_rcc.c ****   @elseif STM32L082xx
1047:Drivers/STM32L0xx_HAL_Driver/Src/stm32l0xx_hal_rcc.c ****   *            @arg @ref RCC_MCO1SOURCE_HSI48       HSI48 clock selected as MCO clock
1048:Drivers/STM32L0xx_HAL_Driver/Src/stm32l0xx_hal_rcc.c ****   @elseif STM32L083xx
1049:Drivers/STM32L0xx_HAL_Driver/Src/stm32l0xx_hal_rcc.c ****   *            @arg @ref RCC_MCO1SOURCE_HSI48       HSI48 clock selected as MCO clock
1050:Drivers/STM32L0xx_HAL_Driver/Src/stm32l0xx_hal_rcc.c ****   @endif
1051:Drivers/STM32L0xx_HAL_Driver/Src/stm32l0xx_hal_rcc.c ****   * @param  RCC_MCODiv specifies the MCO DIV.
1052:Drivers/STM32L0xx_HAL_Driver/Src/stm32l0xx_hal_rcc.c ****   *          This parameter can be one of the following values:
1053:Drivers/STM32L0xx_HAL_Driver/Src/stm32l0xx_hal_rcc.c ****   *            @arg @ref RCC_MCODIV_1 no division applied to MCO clock
1054:Drivers/STM32L0xx_HAL_Driver/Src/stm32l0xx_hal_rcc.c ****   *            @arg @ref RCC_MCODIV_2  division by 2 applied to MCO clock
1055:Drivers/STM32L0xx_HAL_Driver/Src/stm32l0xx_hal_rcc.c ****   *            @arg @ref RCC_MCODIV_4  division by 4 applied to MCO clock
1056:Drivers/STM32L0xx_HAL_Driver/Src/stm32l0xx_hal_rcc.c ****   *            @arg @ref RCC_MCODIV_8  division by 8 applied to MCO clock
1057:Drivers/STM32L0xx_HAL_Driver/Src/stm32l0xx_hal_rcc.c ****   *            @arg @ref RCC_MCODIV_16 division by 16 applied to MCO clock
1058:Drivers/STM32L0xx_HAL_Driver/Src/stm32l0xx_hal_rcc.c ****   * @retval None
1059:Drivers/STM32L0xx_HAL_Driver/Src/stm32l0xx_hal_rcc.c ****   */
1060:Drivers/STM32L0xx_HAL_Driver/Src/stm32l0xx_hal_rcc.c **** void HAL_RCC_MCOConfig(uint32_t RCC_MCOx, uint32_t RCC_MCOSource, uint32_t RCC_MCODiv)
ARM GAS  /tmp/ccWNGGuS.s 			page 20


1061:Drivers/STM32L0xx_HAL_Driver/Src/stm32l0xx_hal_rcc.c **** {
1062:Drivers/STM32L0xx_HAL_Driver/Src/stm32l0xx_hal_rcc.c ****   GPIO_InitTypeDef gpio = {0};
1063:Drivers/STM32L0xx_HAL_Driver/Src/stm32l0xx_hal_rcc.c **** 
1064:Drivers/STM32L0xx_HAL_Driver/Src/stm32l0xx_hal_rcc.c ****   /* Check the parameters */
1065:Drivers/STM32L0xx_HAL_Driver/Src/stm32l0xx_hal_rcc.c ****   assert_param(IS_RCC_MCO(RCC_MCOx));
1066:Drivers/STM32L0xx_HAL_Driver/Src/stm32l0xx_hal_rcc.c ****   assert_param(IS_RCC_MCODIV(RCC_MCODiv));
1067:Drivers/STM32L0xx_HAL_Driver/Src/stm32l0xx_hal_rcc.c ****   assert_param(IS_RCC_MCO1SOURCE(RCC_MCOSource));
1068:Drivers/STM32L0xx_HAL_Driver/Src/stm32l0xx_hal_rcc.c ****   
1069:Drivers/STM32L0xx_HAL_Driver/Src/stm32l0xx_hal_rcc.c ****   /* Configure the MCO1 pin in alternate function mode */
1070:Drivers/STM32L0xx_HAL_Driver/Src/stm32l0xx_hal_rcc.c ****   gpio.Mode      = GPIO_MODE_AF_PP;
1071:Drivers/STM32L0xx_HAL_Driver/Src/stm32l0xx_hal_rcc.c ****   gpio.Speed     = GPIO_SPEED_FREQ_HIGH;
1072:Drivers/STM32L0xx_HAL_Driver/Src/stm32l0xx_hal_rcc.c ****   gpio.Pull      = GPIO_NOPULL;
1073:Drivers/STM32L0xx_HAL_Driver/Src/stm32l0xx_hal_rcc.c ****   if(RCC_MCOx == RCC_MCO1)
1074:Drivers/STM32L0xx_HAL_Driver/Src/stm32l0xx_hal_rcc.c ****   {    
1075:Drivers/STM32L0xx_HAL_Driver/Src/stm32l0xx_hal_rcc.c ****     gpio.Pin       = MCO1_PIN;
1076:Drivers/STM32L0xx_HAL_Driver/Src/stm32l0xx_hal_rcc.c ****     gpio.Alternate = GPIO_AF0_MCO;
1077:Drivers/STM32L0xx_HAL_Driver/Src/stm32l0xx_hal_rcc.c ****     
1078:Drivers/STM32L0xx_HAL_Driver/Src/stm32l0xx_hal_rcc.c ****     /* MCO1 Clock Enable */
1079:Drivers/STM32L0xx_HAL_Driver/Src/stm32l0xx_hal_rcc.c ****     MCO1_CLK_ENABLE();
1080:Drivers/STM32L0xx_HAL_Driver/Src/stm32l0xx_hal_rcc.c ****     HAL_GPIO_Init(MCO1_GPIO_PORT, &gpio);
1081:Drivers/STM32L0xx_HAL_Driver/Src/stm32l0xx_hal_rcc.c ****   }
1082:Drivers/STM32L0xx_HAL_Driver/Src/stm32l0xx_hal_rcc.c **** #if  defined(STM32L031xx) || defined(STM32L041xx) || defined(STM32L073xx) || defined(STM32L083xx) \
1083:Drivers/STM32L0xx_HAL_Driver/Src/stm32l0xx_hal_rcc.c ****   || defined(STM32L072xx) || defined(STM32L082xx) || defined(STM32L071xx) || defined(STM32L081xx) 
1084:Drivers/STM32L0xx_HAL_Driver/Src/stm32l0xx_hal_rcc.c ****   else if (RCC_MCOx == RCC_MCO3)
1085:Drivers/STM32L0xx_HAL_Driver/Src/stm32l0xx_hal_rcc.c ****   {
1086:Drivers/STM32L0xx_HAL_Driver/Src/stm32l0xx_hal_rcc.c ****     gpio.Pin       = MCO3_PIN;
1087:Drivers/STM32L0xx_HAL_Driver/Src/stm32l0xx_hal_rcc.c ****     gpio.Alternate = GPIO_AF2_MCO;
1088:Drivers/STM32L0xx_HAL_Driver/Src/stm32l0xx_hal_rcc.c ****     
1089:Drivers/STM32L0xx_HAL_Driver/Src/stm32l0xx_hal_rcc.c ****     /* MCO3 Clock Enable */
1090:Drivers/STM32L0xx_HAL_Driver/Src/stm32l0xx_hal_rcc.c ****     MCO3_CLK_ENABLE();    
1091:Drivers/STM32L0xx_HAL_Driver/Src/stm32l0xx_hal_rcc.c ****     HAL_GPIO_Init(MCO3_GPIO_PORT, &gpio);
1092:Drivers/STM32L0xx_HAL_Driver/Src/stm32l0xx_hal_rcc.c ****   }
1093:Drivers/STM32L0xx_HAL_Driver/Src/stm32l0xx_hal_rcc.c **** #endif
1094:Drivers/STM32L0xx_HAL_Driver/Src/stm32l0xx_hal_rcc.c ****   else
1095:Drivers/STM32L0xx_HAL_Driver/Src/stm32l0xx_hal_rcc.c ****   {    
1096:Drivers/STM32L0xx_HAL_Driver/Src/stm32l0xx_hal_rcc.c ****     gpio.Pin       = MCO2_PIN;
1097:Drivers/STM32L0xx_HAL_Driver/Src/stm32l0xx_hal_rcc.c ****     gpio.Alternate = GPIO_AF0_MCO;
1098:Drivers/STM32L0xx_HAL_Driver/Src/stm32l0xx_hal_rcc.c ****     
1099:Drivers/STM32L0xx_HAL_Driver/Src/stm32l0xx_hal_rcc.c ****     /* MCO2 Clock Enable */
1100:Drivers/STM32L0xx_HAL_Driver/Src/stm32l0xx_hal_rcc.c ****     MCO2_CLK_ENABLE();
1101:Drivers/STM32L0xx_HAL_Driver/Src/stm32l0xx_hal_rcc.c ****     HAL_GPIO_Init(MCO2_GPIO_PORT, &gpio);
1102:Drivers/STM32L0xx_HAL_Driver/Src/stm32l0xx_hal_rcc.c ****   }    
1103:Drivers/STM32L0xx_HAL_Driver/Src/stm32l0xx_hal_rcc.c ****   
1104:Drivers/STM32L0xx_HAL_Driver/Src/stm32l0xx_hal_rcc.c ****   /* Configure the MCO clock source */
1105:Drivers/STM32L0xx_HAL_Driver/Src/stm32l0xx_hal_rcc.c ****   __HAL_RCC_MCO1_CONFIG(RCC_MCOSource, RCC_MCODiv);
1106:Drivers/STM32L0xx_HAL_Driver/Src/stm32l0xx_hal_rcc.c **** }
1107:Drivers/STM32L0xx_HAL_Driver/Src/stm32l0xx_hal_rcc.c **** 
1108:Drivers/STM32L0xx_HAL_Driver/Src/stm32l0xx_hal_rcc.c **** #if defined(RCC_HSECSS_SUPPORT)
1109:Drivers/STM32L0xx_HAL_Driver/Src/stm32l0xx_hal_rcc.c **** /**
1110:Drivers/STM32L0xx_HAL_Driver/Src/stm32l0xx_hal_rcc.c ****   * @brief  Enables the Clock Security System.
1111:Drivers/STM32L0xx_HAL_Driver/Src/stm32l0xx_hal_rcc.c ****   * @note   If a failure is detected on the HSE oscillator clock, this oscillator
1112:Drivers/STM32L0xx_HAL_Driver/Src/stm32l0xx_hal_rcc.c ****   *         is automatically disabled and an interrupt is generated to inform the
1113:Drivers/STM32L0xx_HAL_Driver/Src/stm32l0xx_hal_rcc.c ****   *         software about the failure (Clock Security System Interrupt, CSSI),
1114:Drivers/STM32L0xx_HAL_Driver/Src/stm32l0xx_hal_rcc.c ****   *         allowing the MCU to perform rescue operations. The CSSI is linked to 
1115:Drivers/STM32L0xx_HAL_Driver/Src/stm32l0xx_hal_rcc.c ****   *         the Cortex-M0+ NMI (Non-Maskable Interrupt) exception vector.  
1116:Drivers/STM32L0xx_HAL_Driver/Src/stm32l0xx_hal_rcc.c ****   * @retval None
1117:Drivers/STM32L0xx_HAL_Driver/Src/stm32l0xx_hal_rcc.c ****   */
ARM GAS  /tmp/ccWNGGuS.s 			page 21


1118:Drivers/STM32L0xx_HAL_Driver/Src/stm32l0xx_hal_rcc.c **** void HAL_RCC_EnableCSS(void)
1119:Drivers/STM32L0xx_HAL_Driver/Src/stm32l0xx_hal_rcc.c **** {
1120:Drivers/STM32L0xx_HAL_Driver/Src/stm32l0xx_hal_rcc.c ****   SET_BIT(RCC->CR, RCC_CR_CSSON) ;
1121:Drivers/STM32L0xx_HAL_Driver/Src/stm32l0xx_hal_rcc.c **** }
1122:Drivers/STM32L0xx_HAL_Driver/Src/stm32l0xx_hal_rcc.c **** 
1123:Drivers/STM32L0xx_HAL_Driver/Src/stm32l0xx_hal_rcc.c **** #endif /* RCC_HSECSS_SUPPORT */
1124:Drivers/STM32L0xx_HAL_Driver/Src/stm32l0xx_hal_rcc.c **** /**
1125:Drivers/STM32L0xx_HAL_Driver/Src/stm32l0xx_hal_rcc.c ****   * @brief  Returns the SYSCLK frequency     
1126:Drivers/STM32L0xx_HAL_Driver/Src/stm32l0xx_hal_rcc.c ****   * @note   The system frequency computed by this function is not the real 
1127:Drivers/STM32L0xx_HAL_Driver/Src/stm32l0xx_hal_rcc.c ****   *         frequency in the chip. It is calculated based on the predefined 
1128:Drivers/STM32L0xx_HAL_Driver/Src/stm32l0xx_hal_rcc.c ****   *         constant and the selected clock source:
1129:Drivers/STM32L0xx_HAL_Driver/Src/stm32l0xx_hal_rcc.c ****   * @note     If SYSCLK source is MSI, function returns a value based on MSI
1130:Drivers/STM32L0xx_HAL_Driver/Src/stm32l0xx_hal_rcc.c ****   *             Value as defined by the MSI range.
1131:Drivers/STM32L0xx_HAL_Driver/Src/stm32l0xx_hal_rcc.c ****   * @note     If SYSCLK source is HSI, function returns values based on HSI_VALUE(*)
1132:Drivers/STM32L0xx_HAL_Driver/Src/stm32l0xx_hal_rcc.c ****   * @note     If SYSCLK source is HSE, function returns a value based on HSE_VALUE(**)
1133:Drivers/STM32L0xx_HAL_Driver/Src/stm32l0xx_hal_rcc.c ****   * @note     If SYSCLK source is PLL, function returns a value based on HSE_VALUE(**) 
1134:Drivers/STM32L0xx_HAL_Driver/Src/stm32l0xx_hal_rcc.c ****   *           or HSI_VALUE(*) multiplied/divided by the PLL factors.         
1135:Drivers/STM32L0xx_HAL_Driver/Src/stm32l0xx_hal_rcc.c ****   * @note     (*) HSI_VALUE is a constant defined in stm32l0xx_hal_conf.h file (default value
1136:Drivers/STM32L0xx_HAL_Driver/Src/stm32l0xx_hal_rcc.c ****   *               16 MHz) but the real value may vary depending on the variations
1137:Drivers/STM32L0xx_HAL_Driver/Src/stm32l0xx_hal_rcc.c ****   *               in voltage and temperature.
1138:Drivers/STM32L0xx_HAL_Driver/Src/stm32l0xx_hal_rcc.c ****   * @note     (**) HSE_VALUE is a constant defined in stm32l0xx_hal_conf.h file (default value
1139:Drivers/STM32L0xx_HAL_Driver/Src/stm32l0xx_hal_rcc.c ****   *                8 MHz), user has to ensure that HSE_VALUE is same as the real
1140:Drivers/STM32L0xx_HAL_Driver/Src/stm32l0xx_hal_rcc.c ****   *                frequency of the crystal used. Otherwise, this function may
1141:Drivers/STM32L0xx_HAL_Driver/Src/stm32l0xx_hal_rcc.c ****   *                have wrong result.
1142:Drivers/STM32L0xx_HAL_Driver/Src/stm32l0xx_hal_rcc.c ****   *                  
1143:Drivers/STM32L0xx_HAL_Driver/Src/stm32l0xx_hal_rcc.c ****   * @note   The result of this function could be not correct when using fractional
1144:Drivers/STM32L0xx_HAL_Driver/Src/stm32l0xx_hal_rcc.c ****   *         value for HSE crystal.
1145:Drivers/STM32L0xx_HAL_Driver/Src/stm32l0xx_hal_rcc.c ****   *           
1146:Drivers/STM32L0xx_HAL_Driver/Src/stm32l0xx_hal_rcc.c ****   * @note   This function can be used by the user application to compute the 
1147:Drivers/STM32L0xx_HAL_Driver/Src/stm32l0xx_hal_rcc.c ****   *         baud-rate for the communication peripherals or configure other parameters.
1148:Drivers/STM32L0xx_HAL_Driver/Src/stm32l0xx_hal_rcc.c ****   *           
1149:Drivers/STM32L0xx_HAL_Driver/Src/stm32l0xx_hal_rcc.c ****   * @note   Each time SYSCLK changes, this function must be called to update the
1150:Drivers/STM32L0xx_HAL_Driver/Src/stm32l0xx_hal_rcc.c ****   *         right SYSCLK value. Otherwise, any configuration based on this function will be incorre
1151:Drivers/STM32L0xx_HAL_Driver/Src/stm32l0xx_hal_rcc.c ****   *         
1152:Drivers/STM32L0xx_HAL_Driver/Src/stm32l0xx_hal_rcc.c ****   * @retval SYSCLK frequency
1153:Drivers/STM32L0xx_HAL_Driver/Src/stm32l0xx_hal_rcc.c ****   */
1154:Drivers/STM32L0xx_HAL_Driver/Src/stm32l0xx_hal_rcc.c **** uint32_t HAL_RCC_GetSysClockFreq(void)
1155:Drivers/STM32L0xx_HAL_Driver/Src/stm32l0xx_hal_rcc.c **** {
1156:Drivers/STM32L0xx_HAL_Driver/Src/stm32l0xx_hal_rcc.c ****   uint32_t tmpreg = 0, pllm = 0, plld = 0, pllvco = 0, msiclkrange = 0;
1157:Drivers/STM32L0xx_HAL_Driver/Src/stm32l0xx_hal_rcc.c ****   uint32_t sysclockfreq = 0;
1158:Drivers/STM32L0xx_HAL_Driver/Src/stm32l0xx_hal_rcc.c ****   
1159:Drivers/STM32L0xx_HAL_Driver/Src/stm32l0xx_hal_rcc.c ****   tmpreg = RCC->CFGR;
1160:Drivers/STM32L0xx_HAL_Driver/Src/stm32l0xx_hal_rcc.c ****   
1161:Drivers/STM32L0xx_HAL_Driver/Src/stm32l0xx_hal_rcc.c ****   /* Get SYSCLK source -------------------------------------------------------*/
1162:Drivers/STM32L0xx_HAL_Driver/Src/stm32l0xx_hal_rcc.c ****   switch (tmpreg & RCC_CFGR_SWS)
1163:Drivers/STM32L0xx_HAL_Driver/Src/stm32l0xx_hal_rcc.c ****   {
1164:Drivers/STM32L0xx_HAL_Driver/Src/stm32l0xx_hal_rcc.c ****     case RCC_SYSCLKSOURCE_STATUS_HSI:  /* HSI used as system clock source */
1165:Drivers/STM32L0xx_HAL_Driver/Src/stm32l0xx_hal_rcc.c ****     {
1166:Drivers/STM32L0xx_HAL_Driver/Src/stm32l0xx_hal_rcc.c ****       if ((RCC->CR & RCC_CR_HSIDIVF) != 0)
1167:Drivers/STM32L0xx_HAL_Driver/Src/stm32l0xx_hal_rcc.c ****       {
1168:Drivers/STM32L0xx_HAL_Driver/Src/stm32l0xx_hal_rcc.c ****         sysclockfreq =  (HSI_VALUE >> 2);
1169:Drivers/STM32L0xx_HAL_Driver/Src/stm32l0xx_hal_rcc.c ****       }
1170:Drivers/STM32L0xx_HAL_Driver/Src/stm32l0xx_hal_rcc.c ****       else 
1171:Drivers/STM32L0xx_HAL_Driver/Src/stm32l0xx_hal_rcc.c ****       {
1172:Drivers/STM32L0xx_HAL_Driver/Src/stm32l0xx_hal_rcc.c ****         sysclockfreq =  HSI_VALUE;
1173:Drivers/STM32L0xx_HAL_Driver/Src/stm32l0xx_hal_rcc.c ****       }
1174:Drivers/STM32L0xx_HAL_Driver/Src/stm32l0xx_hal_rcc.c ****       break;
ARM GAS  /tmp/ccWNGGuS.s 			page 22


1175:Drivers/STM32L0xx_HAL_Driver/Src/stm32l0xx_hal_rcc.c ****     }
1176:Drivers/STM32L0xx_HAL_Driver/Src/stm32l0xx_hal_rcc.c ****     case RCC_SYSCLKSOURCE_STATUS_HSE:  /* HSE used as system clock */
1177:Drivers/STM32L0xx_HAL_Driver/Src/stm32l0xx_hal_rcc.c ****     {
1178:Drivers/STM32L0xx_HAL_Driver/Src/stm32l0xx_hal_rcc.c ****       sysclockfreq = HSE_VALUE;
1179:Drivers/STM32L0xx_HAL_Driver/Src/stm32l0xx_hal_rcc.c ****       break;
1180:Drivers/STM32L0xx_HAL_Driver/Src/stm32l0xx_hal_rcc.c ****     }
1181:Drivers/STM32L0xx_HAL_Driver/Src/stm32l0xx_hal_rcc.c ****     case RCC_SYSCLKSOURCE_STATUS_PLLCLK:  /* PLL used as system clock */
1182:Drivers/STM32L0xx_HAL_Driver/Src/stm32l0xx_hal_rcc.c ****     {
1183:Drivers/STM32L0xx_HAL_Driver/Src/stm32l0xx_hal_rcc.c ****       pllm = PLLMulTable[(uint32_t)(tmpreg & RCC_CFGR_PLLMUL) >> RCC_CFGR_PLLMUL_BITNUMBER];
1184:Drivers/STM32L0xx_HAL_Driver/Src/stm32l0xx_hal_rcc.c ****       plld = ((uint32_t)(tmpreg & RCC_CFGR_PLLDIV) >> RCC_CFGR_PLLDIV_BITNUMBER) + 1;
1185:Drivers/STM32L0xx_HAL_Driver/Src/stm32l0xx_hal_rcc.c ****       if (__HAL_RCC_GET_PLL_OSCSOURCE() != RCC_PLLSOURCE_HSI)
1186:Drivers/STM32L0xx_HAL_Driver/Src/stm32l0xx_hal_rcc.c ****       {
1187:Drivers/STM32L0xx_HAL_Driver/Src/stm32l0xx_hal_rcc.c ****         /* HSE used as PLL clock source */
1188:Drivers/STM32L0xx_HAL_Driver/Src/stm32l0xx_hal_rcc.c ****         pllvco = (HSE_VALUE * pllm) / plld;
1189:Drivers/STM32L0xx_HAL_Driver/Src/stm32l0xx_hal_rcc.c ****       }
1190:Drivers/STM32L0xx_HAL_Driver/Src/stm32l0xx_hal_rcc.c ****       else
1191:Drivers/STM32L0xx_HAL_Driver/Src/stm32l0xx_hal_rcc.c ****       {
1192:Drivers/STM32L0xx_HAL_Driver/Src/stm32l0xx_hal_rcc.c ****         if ((RCC->CR & RCC_CR_HSIDIVF) != 0)
1193:Drivers/STM32L0xx_HAL_Driver/Src/stm32l0xx_hal_rcc.c ****         {
1194:Drivers/STM32L0xx_HAL_Driver/Src/stm32l0xx_hal_rcc.c ****           pllvco = ((HSI_VALUE >> 2) * pllm) / plld;
1195:Drivers/STM32L0xx_HAL_Driver/Src/stm32l0xx_hal_rcc.c ****         }
1196:Drivers/STM32L0xx_HAL_Driver/Src/stm32l0xx_hal_rcc.c ****         else 
1197:Drivers/STM32L0xx_HAL_Driver/Src/stm32l0xx_hal_rcc.c ****         {
1198:Drivers/STM32L0xx_HAL_Driver/Src/stm32l0xx_hal_rcc.c ****          pllvco = (HSI_VALUE * pllm) / plld;
1199:Drivers/STM32L0xx_HAL_Driver/Src/stm32l0xx_hal_rcc.c ****         }
1200:Drivers/STM32L0xx_HAL_Driver/Src/stm32l0xx_hal_rcc.c ****       }
1201:Drivers/STM32L0xx_HAL_Driver/Src/stm32l0xx_hal_rcc.c ****       sysclockfreq = pllvco;
1202:Drivers/STM32L0xx_HAL_Driver/Src/stm32l0xx_hal_rcc.c ****       break;
1203:Drivers/STM32L0xx_HAL_Driver/Src/stm32l0xx_hal_rcc.c ****     }
1204:Drivers/STM32L0xx_HAL_Driver/Src/stm32l0xx_hal_rcc.c ****     case RCC_SYSCLKSOURCE_STATUS_MSI:  /* MSI used as system clock source */
1205:Drivers/STM32L0xx_HAL_Driver/Src/stm32l0xx_hal_rcc.c ****     default: /* MSI used as system clock */
1206:Drivers/STM32L0xx_HAL_Driver/Src/stm32l0xx_hal_rcc.c ****     {
1207:Drivers/STM32L0xx_HAL_Driver/Src/stm32l0xx_hal_rcc.c ****       msiclkrange = (RCC->ICSCR & RCC_ICSCR_MSIRANGE ) >> RCC_ICSCR_MSIRANGE_BITNUMBER;
1208:Drivers/STM32L0xx_HAL_Driver/Src/stm32l0xx_hal_rcc.c ****       sysclockfreq = (32768 * (1 << (msiclkrange + 1)));
1209:Drivers/STM32L0xx_HAL_Driver/Src/stm32l0xx_hal_rcc.c ****       break;
1210:Drivers/STM32L0xx_HAL_Driver/Src/stm32l0xx_hal_rcc.c ****     }
1211:Drivers/STM32L0xx_HAL_Driver/Src/stm32l0xx_hal_rcc.c ****   }
1212:Drivers/STM32L0xx_HAL_Driver/Src/stm32l0xx_hal_rcc.c ****   return sysclockfreq;
1213:Drivers/STM32L0xx_HAL_Driver/Src/stm32l0xx_hal_rcc.c **** }
1214:Drivers/STM32L0xx_HAL_Driver/Src/stm32l0xx_hal_rcc.c **** 
1215:Drivers/STM32L0xx_HAL_Driver/Src/stm32l0xx_hal_rcc.c **** /**
1216:Drivers/STM32L0xx_HAL_Driver/Src/stm32l0xx_hal_rcc.c ****   * @brief  Returns the HCLK frequency     
1217:Drivers/STM32L0xx_HAL_Driver/Src/stm32l0xx_hal_rcc.c ****   * @note   Each time HCLK changes, this function must be called to update the
1218:Drivers/STM32L0xx_HAL_Driver/Src/stm32l0xx_hal_rcc.c ****   *         right HCLK value. Otherwise, any configuration based on this function will be incorrect
1219:Drivers/STM32L0xx_HAL_Driver/Src/stm32l0xx_hal_rcc.c ****   * 
1220:Drivers/STM32L0xx_HAL_Driver/Src/stm32l0xx_hal_rcc.c ****   * @note   The SystemCoreClock CMSIS variable is used to store System Clock Frequency 
1221:Drivers/STM32L0xx_HAL_Driver/Src/stm32l0xx_hal_rcc.c ****   *         and updated within this function
1222:Drivers/STM32L0xx_HAL_Driver/Src/stm32l0xx_hal_rcc.c ****   * @retval HCLK frequency
1223:Drivers/STM32L0xx_HAL_Driver/Src/stm32l0xx_hal_rcc.c ****   */
1224:Drivers/STM32L0xx_HAL_Driver/Src/stm32l0xx_hal_rcc.c **** uint32_t HAL_RCC_GetHCLKFreq(void)
1225:Drivers/STM32L0xx_HAL_Driver/Src/stm32l0xx_hal_rcc.c **** {
1226:Drivers/STM32L0xx_HAL_Driver/Src/stm32l0xx_hal_rcc.c ****   return SystemCoreClock;
1227:Drivers/STM32L0xx_HAL_Driver/Src/stm32l0xx_hal_rcc.c **** }
1228:Drivers/STM32L0xx_HAL_Driver/Src/stm32l0xx_hal_rcc.c **** 
1229:Drivers/STM32L0xx_HAL_Driver/Src/stm32l0xx_hal_rcc.c **** /**
1230:Drivers/STM32L0xx_HAL_Driver/Src/stm32l0xx_hal_rcc.c ****   * @brief  Returns the PCLK1 frequency     
1231:Drivers/STM32L0xx_HAL_Driver/Src/stm32l0xx_hal_rcc.c ****   * @note   Each time PCLK1 changes, this function must be called to update the
ARM GAS  /tmp/ccWNGGuS.s 			page 23


1232:Drivers/STM32L0xx_HAL_Driver/Src/stm32l0xx_hal_rcc.c ****   *         right PCLK1 value. Otherwise, any configuration based on this function will be incorrec
1233:Drivers/STM32L0xx_HAL_Driver/Src/stm32l0xx_hal_rcc.c ****   * @retval PCLK1 frequency
1234:Drivers/STM32L0xx_HAL_Driver/Src/stm32l0xx_hal_rcc.c ****   */
1235:Drivers/STM32L0xx_HAL_Driver/Src/stm32l0xx_hal_rcc.c **** uint32_t HAL_RCC_GetPCLK1Freq(void)
1236:Drivers/STM32L0xx_HAL_Driver/Src/stm32l0xx_hal_rcc.c **** {
1237:Drivers/STM32L0xx_HAL_Driver/Src/stm32l0xx_hal_rcc.c ****   /* Get HCLK source and Compute PCLK1 frequency ---------------------------*/
1238:Drivers/STM32L0xx_HAL_Driver/Src/stm32l0xx_hal_rcc.c ****   return (HAL_RCC_GetHCLKFreq() >> APBPrescTable[(RCC->CFGR & RCC_CFGR_PPRE1) >> RCC_CFGR_PPRE1_BIT
1239:Drivers/STM32L0xx_HAL_Driver/Src/stm32l0xx_hal_rcc.c **** }    
1240:Drivers/STM32L0xx_HAL_Driver/Src/stm32l0xx_hal_rcc.c **** 
1241:Drivers/STM32L0xx_HAL_Driver/Src/stm32l0xx_hal_rcc.c **** /**
1242:Drivers/STM32L0xx_HAL_Driver/Src/stm32l0xx_hal_rcc.c ****   * @brief  Returns the PCLK2 frequency     
1243:Drivers/STM32L0xx_HAL_Driver/Src/stm32l0xx_hal_rcc.c ****   * @note   Each time PCLK2 changes, this function must be called to update the
1244:Drivers/STM32L0xx_HAL_Driver/Src/stm32l0xx_hal_rcc.c ****   *         right PCLK2 value. Otherwise, any configuration based on this function will be incorrec
1245:Drivers/STM32L0xx_HAL_Driver/Src/stm32l0xx_hal_rcc.c ****   * @retval PCLK2 frequency
1246:Drivers/STM32L0xx_HAL_Driver/Src/stm32l0xx_hal_rcc.c ****   */
1247:Drivers/STM32L0xx_HAL_Driver/Src/stm32l0xx_hal_rcc.c **** uint32_t HAL_RCC_GetPCLK2Freq(void)
1248:Drivers/STM32L0xx_HAL_Driver/Src/stm32l0xx_hal_rcc.c **** {
1249:Drivers/STM32L0xx_HAL_Driver/Src/stm32l0xx_hal_rcc.c ****   /* Get HCLK source and Compute PCLK2 frequency ---------------------------*/
1250:Drivers/STM32L0xx_HAL_Driver/Src/stm32l0xx_hal_rcc.c ****   return (HAL_RCC_GetHCLKFreq()>> APBPrescTable[(RCC->CFGR & RCC_CFGR_PPRE2) >> RCC_CFGR_PPRE2_BITN
1251:Drivers/STM32L0xx_HAL_Driver/Src/stm32l0xx_hal_rcc.c **** } 
1252:Drivers/STM32L0xx_HAL_Driver/Src/stm32l0xx_hal_rcc.c **** 
1253:Drivers/STM32L0xx_HAL_Driver/Src/stm32l0xx_hal_rcc.c **** /**
1254:Drivers/STM32L0xx_HAL_Driver/Src/stm32l0xx_hal_rcc.c ****   * @brief  Configures the RCC_OscInitStruct according to the internal 
1255:Drivers/STM32L0xx_HAL_Driver/Src/stm32l0xx_hal_rcc.c ****   * RCC configuration registers.
1256:Drivers/STM32L0xx_HAL_Driver/Src/stm32l0xx_hal_rcc.c ****   * @param  RCC_OscInitStruct pointer to an RCC_OscInitTypeDef structure that 
1257:Drivers/STM32L0xx_HAL_Driver/Src/stm32l0xx_hal_rcc.c ****   * will be configured.
1258:Drivers/STM32L0xx_HAL_Driver/Src/stm32l0xx_hal_rcc.c ****   * @retval None
1259:Drivers/STM32L0xx_HAL_Driver/Src/stm32l0xx_hal_rcc.c ****   */
1260:Drivers/STM32L0xx_HAL_Driver/Src/stm32l0xx_hal_rcc.c **** void HAL_RCC_GetOscConfig(RCC_OscInitTypeDef  *RCC_OscInitStruct)
1261:Drivers/STM32L0xx_HAL_Driver/Src/stm32l0xx_hal_rcc.c **** {
1262:Drivers/STM32L0xx_HAL_Driver/Src/stm32l0xx_hal_rcc.c ****   /* Check the parameters */
1263:Drivers/STM32L0xx_HAL_Driver/Src/stm32l0xx_hal_rcc.c ****   assert_param(RCC_OscInitStruct != NULL);
1264:Drivers/STM32L0xx_HAL_Driver/Src/stm32l0xx_hal_rcc.c **** 
1265:Drivers/STM32L0xx_HAL_Driver/Src/stm32l0xx_hal_rcc.c ****   /* Set all possible values for the Oscillator type parameter ---------------*/
1266:Drivers/STM32L0xx_HAL_Driver/Src/stm32l0xx_hal_rcc.c ****   RCC_OscInitStruct->OscillatorType = RCC_OSCILLATORTYPE_HSE | RCC_OSCILLATORTYPE_HSI  \
1267:Drivers/STM32L0xx_HAL_Driver/Src/stm32l0xx_hal_rcc.c ****                   | RCC_OSCILLATORTYPE_LSE | RCC_OSCILLATORTYPE_LSI | RCC_OSCILLATORTYPE_MSI;
1268:Drivers/STM32L0xx_HAL_Driver/Src/stm32l0xx_hal_rcc.c **** #if defined(RCC_HSI48_SUPPORT)
1269:Drivers/STM32L0xx_HAL_Driver/Src/stm32l0xx_hal_rcc.c ****   RCC_OscInitStruct->OscillatorType |= RCC_OSCILLATORTYPE_HSI48;
1270:Drivers/STM32L0xx_HAL_Driver/Src/stm32l0xx_hal_rcc.c **** #endif /* RCC_HSI48_SUPPORT */
1271:Drivers/STM32L0xx_HAL_Driver/Src/stm32l0xx_hal_rcc.c **** 
1272:Drivers/STM32L0xx_HAL_Driver/Src/stm32l0xx_hal_rcc.c **** 
1273:Drivers/STM32L0xx_HAL_Driver/Src/stm32l0xx_hal_rcc.c ****   /* Get the HSE configuration -----------------------------------------------*/
1274:Drivers/STM32L0xx_HAL_Driver/Src/stm32l0xx_hal_rcc.c ****   if((RCC->CR &RCC_CR_HSEBYP) == RCC_CR_HSEBYP)
1275:Drivers/STM32L0xx_HAL_Driver/Src/stm32l0xx_hal_rcc.c ****   {
1276:Drivers/STM32L0xx_HAL_Driver/Src/stm32l0xx_hal_rcc.c ****     RCC_OscInitStruct->HSEState = RCC_HSE_BYPASS;
1277:Drivers/STM32L0xx_HAL_Driver/Src/stm32l0xx_hal_rcc.c ****   }
1278:Drivers/STM32L0xx_HAL_Driver/Src/stm32l0xx_hal_rcc.c ****   else if((RCC->CR &RCC_CR_HSEON) == RCC_CR_HSEON)
1279:Drivers/STM32L0xx_HAL_Driver/Src/stm32l0xx_hal_rcc.c ****   {
1280:Drivers/STM32L0xx_HAL_Driver/Src/stm32l0xx_hal_rcc.c ****     RCC_OscInitStruct->HSEState = RCC_HSE_ON;
1281:Drivers/STM32L0xx_HAL_Driver/Src/stm32l0xx_hal_rcc.c ****   }
1282:Drivers/STM32L0xx_HAL_Driver/Src/stm32l0xx_hal_rcc.c ****   else
1283:Drivers/STM32L0xx_HAL_Driver/Src/stm32l0xx_hal_rcc.c ****   {
1284:Drivers/STM32L0xx_HAL_Driver/Src/stm32l0xx_hal_rcc.c ****     RCC_OscInitStruct->HSEState = RCC_HSE_OFF;
1285:Drivers/STM32L0xx_HAL_Driver/Src/stm32l0xx_hal_rcc.c ****   }
1286:Drivers/STM32L0xx_HAL_Driver/Src/stm32l0xx_hal_rcc.c **** 
1287:Drivers/STM32L0xx_HAL_Driver/Src/stm32l0xx_hal_rcc.c ****   /* Get the HSI configuration -----------------------------------------------*/
1288:Drivers/STM32L0xx_HAL_Driver/Src/stm32l0xx_hal_rcc.c ****   if((RCC->CR &RCC_CR_HSION) == RCC_CR_HSION)
ARM GAS  /tmp/ccWNGGuS.s 			page 24


1289:Drivers/STM32L0xx_HAL_Driver/Src/stm32l0xx_hal_rcc.c ****   {
1290:Drivers/STM32L0xx_HAL_Driver/Src/stm32l0xx_hal_rcc.c ****     RCC_OscInitStruct->HSIState = RCC_HSI_ON;
1291:Drivers/STM32L0xx_HAL_Driver/Src/stm32l0xx_hal_rcc.c ****   }
1292:Drivers/STM32L0xx_HAL_Driver/Src/stm32l0xx_hal_rcc.c ****   else
1293:Drivers/STM32L0xx_HAL_Driver/Src/stm32l0xx_hal_rcc.c ****   {
1294:Drivers/STM32L0xx_HAL_Driver/Src/stm32l0xx_hal_rcc.c ****     RCC_OscInitStruct->HSIState = RCC_HSI_OFF;
1295:Drivers/STM32L0xx_HAL_Driver/Src/stm32l0xx_hal_rcc.c ****   }
1296:Drivers/STM32L0xx_HAL_Driver/Src/stm32l0xx_hal_rcc.c ****   
1297:Drivers/STM32L0xx_HAL_Driver/Src/stm32l0xx_hal_rcc.c ****   RCC_OscInitStruct->HSICalibrationValue = (uint32_t)((RCC->ICSCR & RCC_ICSCR_HSITRIM) >> 8);
1298:Drivers/STM32L0xx_HAL_Driver/Src/stm32l0xx_hal_rcc.c ****   
1299:Drivers/STM32L0xx_HAL_Driver/Src/stm32l0xx_hal_rcc.c ****   /* Get the MSI configuration -----------------------------------------------*/
1300:Drivers/STM32L0xx_HAL_Driver/Src/stm32l0xx_hal_rcc.c ****   if((RCC->CR &RCC_CR_MSION) == RCC_CR_MSION)
1301:Drivers/STM32L0xx_HAL_Driver/Src/stm32l0xx_hal_rcc.c ****   {
1302:Drivers/STM32L0xx_HAL_Driver/Src/stm32l0xx_hal_rcc.c ****     RCC_OscInitStruct->MSIState = RCC_MSI_ON;
1303:Drivers/STM32L0xx_HAL_Driver/Src/stm32l0xx_hal_rcc.c ****   }
1304:Drivers/STM32L0xx_HAL_Driver/Src/stm32l0xx_hal_rcc.c ****   else
1305:Drivers/STM32L0xx_HAL_Driver/Src/stm32l0xx_hal_rcc.c ****   {
1306:Drivers/STM32L0xx_HAL_Driver/Src/stm32l0xx_hal_rcc.c ****     RCC_OscInitStruct->MSIState = RCC_MSI_OFF;
1307:Drivers/STM32L0xx_HAL_Driver/Src/stm32l0xx_hal_rcc.c ****   }
1308:Drivers/STM32L0xx_HAL_Driver/Src/stm32l0xx_hal_rcc.c ****   
1309:Drivers/STM32L0xx_HAL_Driver/Src/stm32l0xx_hal_rcc.c ****   RCC_OscInitStruct->MSICalibrationValue = (uint32_t)((RCC->ICSCR & RCC_ICSCR_MSITRIM) >> RCC_ICSCR
1310:Drivers/STM32L0xx_HAL_Driver/Src/stm32l0xx_hal_rcc.c ****   RCC_OscInitStruct->MSIClockRange = (uint32_t)((RCC->ICSCR & RCC_ICSCR_MSIRANGE));
1311:Drivers/STM32L0xx_HAL_Driver/Src/stm32l0xx_hal_rcc.c ****   
1312:Drivers/STM32L0xx_HAL_Driver/Src/stm32l0xx_hal_rcc.c ****   /* Get the LSE configuration -----------------------------------------------*/
1313:Drivers/STM32L0xx_HAL_Driver/Src/stm32l0xx_hal_rcc.c ****   if((RCC->CSR &RCC_CSR_LSEBYP) == RCC_CSR_LSEBYP)
1314:Drivers/STM32L0xx_HAL_Driver/Src/stm32l0xx_hal_rcc.c ****   {
1315:Drivers/STM32L0xx_HAL_Driver/Src/stm32l0xx_hal_rcc.c ****     RCC_OscInitStruct->LSEState = RCC_LSE_BYPASS;
1316:Drivers/STM32L0xx_HAL_Driver/Src/stm32l0xx_hal_rcc.c ****   }
1317:Drivers/STM32L0xx_HAL_Driver/Src/stm32l0xx_hal_rcc.c ****   else if((RCC->CSR &RCC_CSR_LSEON) == RCC_CSR_LSEON)
1318:Drivers/STM32L0xx_HAL_Driver/Src/stm32l0xx_hal_rcc.c ****   {
1319:Drivers/STM32L0xx_HAL_Driver/Src/stm32l0xx_hal_rcc.c ****     RCC_OscInitStruct->LSEState = RCC_LSE_ON;
1320:Drivers/STM32L0xx_HAL_Driver/Src/stm32l0xx_hal_rcc.c ****   }
1321:Drivers/STM32L0xx_HAL_Driver/Src/stm32l0xx_hal_rcc.c ****   else
1322:Drivers/STM32L0xx_HAL_Driver/Src/stm32l0xx_hal_rcc.c ****   {
1323:Drivers/STM32L0xx_HAL_Driver/Src/stm32l0xx_hal_rcc.c ****     RCC_OscInitStruct->LSEState = RCC_LSE_OFF;
1324:Drivers/STM32L0xx_HAL_Driver/Src/stm32l0xx_hal_rcc.c ****   }
1325:Drivers/STM32L0xx_HAL_Driver/Src/stm32l0xx_hal_rcc.c ****   
1326:Drivers/STM32L0xx_HAL_Driver/Src/stm32l0xx_hal_rcc.c ****   /* Get the LSI configuration -----------------------------------------------*/
1327:Drivers/STM32L0xx_HAL_Driver/Src/stm32l0xx_hal_rcc.c ****   if((RCC->CSR &RCC_CSR_LSION) == RCC_CSR_LSION)
1328:Drivers/STM32L0xx_HAL_Driver/Src/stm32l0xx_hal_rcc.c ****   {
1329:Drivers/STM32L0xx_HAL_Driver/Src/stm32l0xx_hal_rcc.c ****     RCC_OscInitStruct->LSIState = RCC_LSI_ON;
1330:Drivers/STM32L0xx_HAL_Driver/Src/stm32l0xx_hal_rcc.c ****   }
1331:Drivers/STM32L0xx_HAL_Driver/Src/stm32l0xx_hal_rcc.c ****   else
1332:Drivers/STM32L0xx_HAL_Driver/Src/stm32l0xx_hal_rcc.c ****   {
1333:Drivers/STM32L0xx_HAL_Driver/Src/stm32l0xx_hal_rcc.c ****     RCC_OscInitStruct->LSIState = RCC_LSI_OFF;
1334:Drivers/STM32L0xx_HAL_Driver/Src/stm32l0xx_hal_rcc.c ****   }
1335:Drivers/STM32L0xx_HAL_Driver/Src/stm32l0xx_hal_rcc.c ****   
1336:Drivers/STM32L0xx_HAL_Driver/Src/stm32l0xx_hal_rcc.c **** #if defined(RCC_HSI48_SUPPORT)
1337:Drivers/STM32L0xx_HAL_Driver/Src/stm32l0xx_hal_rcc.c ****   /* Get the HSI48 configuration if any-----------------------------------------*/
1338:Drivers/STM32L0xx_HAL_Driver/Src/stm32l0xx_hal_rcc.c ****   RCC_OscInitStruct->HSI48State = __HAL_RCC_GET_HSI48_STATE();
1339:Drivers/STM32L0xx_HAL_Driver/Src/stm32l0xx_hal_rcc.c **** #endif /* RCC_HSI48_SUPPORT */
1340:Drivers/STM32L0xx_HAL_Driver/Src/stm32l0xx_hal_rcc.c **** 
1341:Drivers/STM32L0xx_HAL_Driver/Src/stm32l0xx_hal_rcc.c ****   /* Get the PLL configuration -----------------------------------------------*/
1342:Drivers/STM32L0xx_HAL_Driver/Src/stm32l0xx_hal_rcc.c ****   if((RCC->CR &RCC_CR_PLLON) == RCC_CR_PLLON)
1343:Drivers/STM32L0xx_HAL_Driver/Src/stm32l0xx_hal_rcc.c ****   {
1344:Drivers/STM32L0xx_HAL_Driver/Src/stm32l0xx_hal_rcc.c ****     RCC_OscInitStruct->PLL.PLLState = RCC_PLL_ON;
1345:Drivers/STM32L0xx_HAL_Driver/Src/stm32l0xx_hal_rcc.c ****   }
ARM GAS  /tmp/ccWNGGuS.s 			page 25


1346:Drivers/STM32L0xx_HAL_Driver/Src/stm32l0xx_hal_rcc.c ****   else
1347:Drivers/STM32L0xx_HAL_Driver/Src/stm32l0xx_hal_rcc.c ****   {
1348:Drivers/STM32L0xx_HAL_Driver/Src/stm32l0xx_hal_rcc.c ****     RCC_OscInitStruct->PLL.PLLState = RCC_PLL_OFF;
1349:Drivers/STM32L0xx_HAL_Driver/Src/stm32l0xx_hal_rcc.c ****   }
1350:Drivers/STM32L0xx_HAL_Driver/Src/stm32l0xx_hal_rcc.c ****   RCC_OscInitStruct->PLL.PLLSource = (uint32_t)(RCC->CFGR & RCC_CFGR_PLLSRC);
1351:Drivers/STM32L0xx_HAL_Driver/Src/stm32l0xx_hal_rcc.c ****   RCC_OscInitStruct->PLL.PLLMUL = (uint32_t)(RCC->CFGR & RCC_CFGR_PLLMUL);
1352:Drivers/STM32L0xx_HAL_Driver/Src/stm32l0xx_hal_rcc.c ****   RCC_OscInitStruct->PLL.PLLDIV = (uint32_t)(RCC->CFGR & RCC_CFGR_PLLDIV);
1353:Drivers/STM32L0xx_HAL_Driver/Src/stm32l0xx_hal_rcc.c **** }
1354:Drivers/STM32L0xx_HAL_Driver/Src/stm32l0xx_hal_rcc.c **** 
1355:Drivers/STM32L0xx_HAL_Driver/Src/stm32l0xx_hal_rcc.c **** /**
1356:Drivers/STM32L0xx_HAL_Driver/Src/stm32l0xx_hal_rcc.c ****   * @brief  Get the RCC_ClkInitStruct according to the internal 
1357:Drivers/STM32L0xx_HAL_Driver/Src/stm32l0xx_hal_rcc.c ****   * RCC configuration registers.
1358:Drivers/STM32L0xx_HAL_Driver/Src/stm32l0xx_hal_rcc.c ****   * @param  RCC_ClkInitStruct pointer to an RCC_ClkInitTypeDef structure that 
1359:Drivers/STM32L0xx_HAL_Driver/Src/stm32l0xx_hal_rcc.c ****   * contains the current clock configuration.
1360:Drivers/STM32L0xx_HAL_Driver/Src/stm32l0xx_hal_rcc.c ****   * @param  pFLatency Pointer on the Flash Latency.
1361:Drivers/STM32L0xx_HAL_Driver/Src/stm32l0xx_hal_rcc.c ****   * @retval None
1362:Drivers/STM32L0xx_HAL_Driver/Src/stm32l0xx_hal_rcc.c ****   */
1363:Drivers/STM32L0xx_HAL_Driver/Src/stm32l0xx_hal_rcc.c **** void HAL_RCC_GetClockConfig(RCC_ClkInitTypeDef  *RCC_ClkInitStruct, uint32_t *pFLatency)
1364:Drivers/STM32L0xx_HAL_Driver/Src/stm32l0xx_hal_rcc.c **** {
1365:Drivers/STM32L0xx_HAL_Driver/Src/stm32l0xx_hal_rcc.c ****   /* Check the parameters */
1366:Drivers/STM32L0xx_HAL_Driver/Src/stm32l0xx_hal_rcc.c ****   assert_param(RCC_ClkInitStruct != NULL);
1367:Drivers/STM32L0xx_HAL_Driver/Src/stm32l0xx_hal_rcc.c ****   assert_param(pFLatency != NULL);
1368:Drivers/STM32L0xx_HAL_Driver/Src/stm32l0xx_hal_rcc.c **** 
1369:Drivers/STM32L0xx_HAL_Driver/Src/stm32l0xx_hal_rcc.c ****   /* Set all possible values for the Clock type parameter --------------------*/
1370:Drivers/STM32L0xx_HAL_Driver/Src/stm32l0xx_hal_rcc.c ****   RCC_ClkInitStruct->ClockType = RCC_CLOCKTYPE_SYSCLK | RCC_CLOCKTYPE_HCLK | RCC_CLOCKTYPE_PCLK1 | 
1371:Drivers/STM32L0xx_HAL_Driver/Src/stm32l0xx_hal_rcc.c ****   
1372:Drivers/STM32L0xx_HAL_Driver/Src/stm32l0xx_hal_rcc.c ****   /* Get the SYSCLK configuration --------------------------------------------*/ 
1373:Drivers/STM32L0xx_HAL_Driver/Src/stm32l0xx_hal_rcc.c ****   RCC_ClkInitStruct->SYSCLKSource = (uint32_t)(RCC->CFGR & RCC_CFGR_SW);
1374:Drivers/STM32L0xx_HAL_Driver/Src/stm32l0xx_hal_rcc.c ****   
1375:Drivers/STM32L0xx_HAL_Driver/Src/stm32l0xx_hal_rcc.c ****   /* Get the HCLK configuration ----------------------------------------------*/ 
1376:Drivers/STM32L0xx_HAL_Driver/Src/stm32l0xx_hal_rcc.c ****   RCC_ClkInitStruct->AHBCLKDivider = (uint32_t)(RCC->CFGR & RCC_CFGR_HPRE); 
1377:Drivers/STM32L0xx_HAL_Driver/Src/stm32l0xx_hal_rcc.c ****   
1378:Drivers/STM32L0xx_HAL_Driver/Src/stm32l0xx_hal_rcc.c ****   /* Get the APB1 configuration ----------------------------------------------*/ 
1379:Drivers/STM32L0xx_HAL_Driver/Src/stm32l0xx_hal_rcc.c ****   RCC_ClkInitStruct->APB1CLKDivider = (uint32_t)(RCC->CFGR & RCC_CFGR_PPRE1);   
1380:Drivers/STM32L0xx_HAL_Driver/Src/stm32l0xx_hal_rcc.c ****   
1381:Drivers/STM32L0xx_HAL_Driver/Src/stm32l0xx_hal_rcc.c ****   /* Get the APB2 configuration ----------------------------------------------*/ 
1382:Drivers/STM32L0xx_HAL_Driver/Src/stm32l0xx_hal_rcc.c ****   RCC_ClkInitStruct->APB2CLKDivider = (uint32_t)((RCC->CFGR & RCC_CFGR_PPRE2) >> 3);
1383:Drivers/STM32L0xx_HAL_Driver/Src/stm32l0xx_hal_rcc.c ****   
1384:Drivers/STM32L0xx_HAL_Driver/Src/stm32l0xx_hal_rcc.c ****   /* Get the Flash Wait State (Latency) configuration ------------------------*/   
1385:Drivers/STM32L0xx_HAL_Driver/Src/stm32l0xx_hal_rcc.c ****   *pFLatency = (uint32_t)(FLASH->ACR & FLASH_ACR_LATENCY); 
1386:Drivers/STM32L0xx_HAL_Driver/Src/stm32l0xx_hal_rcc.c **** }
1387:Drivers/STM32L0xx_HAL_Driver/Src/stm32l0xx_hal_rcc.c **** 
1388:Drivers/STM32L0xx_HAL_Driver/Src/stm32l0xx_hal_rcc.c **** #if defined(RCC_HSECSS_SUPPORT)
1389:Drivers/STM32L0xx_HAL_Driver/Src/stm32l0xx_hal_rcc.c **** /**
1390:Drivers/STM32L0xx_HAL_Driver/Src/stm32l0xx_hal_rcc.c ****   * @brief This function handles the RCC CSS interrupt request.
1391:Drivers/STM32L0xx_HAL_Driver/Src/stm32l0xx_hal_rcc.c ****   * @note This API should be called under the NMI_Handler().
1392:Drivers/STM32L0xx_HAL_Driver/Src/stm32l0xx_hal_rcc.c ****   * @retval None
1393:Drivers/STM32L0xx_HAL_Driver/Src/stm32l0xx_hal_rcc.c ****   */
1394:Drivers/STM32L0xx_HAL_Driver/Src/stm32l0xx_hal_rcc.c **** void HAL_RCC_NMI_IRQHandler(void)
1395:Drivers/STM32L0xx_HAL_Driver/Src/stm32l0xx_hal_rcc.c **** {
1396:Drivers/STM32L0xx_HAL_Driver/Src/stm32l0xx_hal_rcc.c ****   /* Check RCC CSSF flag  */
1397:Drivers/STM32L0xx_HAL_Driver/Src/stm32l0xx_hal_rcc.c ****   if(__HAL_RCC_GET_IT(RCC_IT_CSS))
1398:Drivers/STM32L0xx_HAL_Driver/Src/stm32l0xx_hal_rcc.c ****   {
1399:Drivers/STM32L0xx_HAL_Driver/Src/stm32l0xx_hal_rcc.c ****     /* RCC Clock Security System interrupt user callback */
1400:Drivers/STM32L0xx_HAL_Driver/Src/stm32l0xx_hal_rcc.c ****     HAL_RCC_CSSCallback();
1401:Drivers/STM32L0xx_HAL_Driver/Src/stm32l0xx_hal_rcc.c ****     
1402:Drivers/STM32L0xx_HAL_Driver/Src/stm32l0xx_hal_rcc.c ****     /* Clear RCC CSS pending bit */
ARM GAS  /tmp/ccWNGGuS.s 			page 26


1403:Drivers/STM32L0xx_HAL_Driver/Src/stm32l0xx_hal_rcc.c ****     __HAL_RCC_CLEAR_IT(RCC_IT_CSS);
1404:Drivers/STM32L0xx_HAL_Driver/Src/stm32l0xx_hal_rcc.c ****   }
1405:Drivers/STM32L0xx_HAL_Driver/Src/stm32l0xx_hal_rcc.c **** }
1406:Drivers/STM32L0xx_HAL_Driver/Src/stm32l0xx_hal_rcc.c **** 
1407:Drivers/STM32L0xx_HAL_Driver/Src/stm32l0xx_hal_rcc.c **** /**
1408:Drivers/STM32L0xx_HAL_Driver/Src/stm32l0xx_hal_rcc.c ****   * @brief  RCC Clock Security System interrupt callback
1409:Drivers/STM32L0xx_HAL_Driver/Src/stm32l0xx_hal_rcc.c ****   * @retval none
1410:Drivers/STM32L0xx_HAL_Driver/Src/stm32l0xx_hal_rcc.c ****   */
1411:Drivers/STM32L0xx_HAL_Driver/Src/stm32l0xx_hal_rcc.c **** __weak void HAL_RCC_CSSCallback(void)
1412:Drivers/STM32L0xx_HAL_Driver/Src/stm32l0xx_hal_rcc.c **** {
1413:Drivers/STM32L0xx_HAL_Driver/Src/stm32l0xx_hal_rcc.c ****   /* NOTE : This function Should not be modified, when the callback is needed,
1414:Drivers/STM32L0xx_HAL_Driver/Src/stm32l0xx_hal_rcc.c ****     the HAL_RCC_CSSCallback could be implemented in the user file
1415:Drivers/STM32L0xx_HAL_Driver/Src/stm32l0xx_hal_rcc.c ****     */ 
1416:Drivers/STM32L0xx_HAL_Driver/Src/stm32l0xx_hal_rcc.c **** }
1417:Drivers/STM32L0xx_HAL_Driver/Src/stm32l0xx_hal_rcc.c **** 
1418:Drivers/STM32L0xx_HAL_Driver/Src/stm32l0xx_hal_rcc.c **** #endif /* RCC_HSECSS_SUPPORT */
1419:Drivers/STM32L0xx_HAL_Driver/Src/stm32l0xx_hal_rcc.c **** /**
1420:Drivers/STM32L0xx_HAL_Driver/Src/stm32l0xx_hal_rcc.c ****   * @}
1421:Drivers/STM32L0xx_HAL_Driver/Src/stm32l0xx_hal_rcc.c ****   */
1422:Drivers/STM32L0xx_HAL_Driver/Src/stm32l0xx_hal_rcc.c **** 
1423:Drivers/STM32L0xx_HAL_Driver/Src/stm32l0xx_hal_rcc.c **** /**
1424:Drivers/STM32L0xx_HAL_Driver/Src/stm32l0xx_hal_rcc.c ****   * @}
1425:Drivers/STM32L0xx_HAL_Driver/Src/stm32l0xx_hal_rcc.c ****   */
1426:Drivers/STM32L0xx_HAL_Driver/Src/stm32l0xx_hal_rcc.c **** 
1427:Drivers/STM32L0xx_HAL_Driver/Src/stm32l0xx_hal_rcc.c **** /* Private function prototypes -----------------------------------------------*/
1428:Drivers/STM32L0xx_HAL_Driver/Src/stm32l0xx_hal_rcc.c **** /** @addtogroup RCC_Private_Functions
1429:Drivers/STM32L0xx_HAL_Driver/Src/stm32l0xx_hal_rcc.c ****   * @{
1430:Drivers/STM32L0xx_HAL_Driver/Src/stm32l0xx_hal_rcc.c ****   */
1431:Drivers/STM32L0xx_HAL_Driver/Src/stm32l0xx_hal_rcc.c **** /**
1432:Drivers/STM32L0xx_HAL_Driver/Src/stm32l0xx_hal_rcc.c ****   * @brief  Update number of Flash wait states in line with MSI range and current 
1433:Drivers/STM32L0xx_HAL_Driver/Src/stm32l0xx_hal_rcc.c ****             voltage range
1434:Drivers/STM32L0xx_HAL_Driver/Src/stm32l0xx_hal_rcc.c ****   * @param  MSIrange  MSI range value from RCC_MSIRANGE_0 to RCC_MSIRANGE_6
1435:Drivers/STM32L0xx_HAL_Driver/Src/stm32l0xx_hal_rcc.c ****   * @retval HAL status
1436:Drivers/STM32L0xx_HAL_Driver/Src/stm32l0xx_hal_rcc.c ****   */
1437:Drivers/STM32L0xx_HAL_Driver/Src/stm32l0xx_hal_rcc.c **** static HAL_StatusTypeDef RCC_SetFlashLatencyFromMSIRange(uint32_t MSIrange)
1438:Drivers/STM32L0xx_HAL_Driver/Src/stm32l0xx_hal_rcc.c **** {
  25              		.loc 1 1438 0
  26              		.cfi_startproc
  27              	.LVL0:
  28 0000 10B5     		push	{r4, lr}
  29              	.LCFI0:
  30              		.cfi_def_cfa_offset 8
  31              		.cfi_offset 4, -8
  32              		.cfi_offset 14, -4
  33              	.LVL1:
1439:Drivers/STM32L0xx_HAL_Driver/Src/stm32l0xx_hal_rcc.c ****   uint32_t vos = 0;
1440:Drivers/STM32L0xx_HAL_Driver/Src/stm32l0xx_hal_rcc.c ****   uint32_t latency = FLASH_LATENCY_0;  /* default value 0WS */
1441:Drivers/STM32L0xx_HAL_Driver/Src/stm32l0xx_hal_rcc.c **** 
1442:Drivers/STM32L0xx_HAL_Driver/Src/stm32l0xx_hal_rcc.c ****   /* HCLK can reach 4 MHz only if AHB prescaler = 1 */
1443:Drivers/STM32L0xx_HAL_Driver/Src/stm32l0xx_hal_rcc.c ****   if (READ_BIT(RCC->CFGR, RCC_CFGR_HPRE) == RCC_SYSCLK_DIV1)
  34              		.loc 1 1443 0
  35 0002 1D4B     		ldr	r3, .L10
  36 0004 DB68     		ldr	r3, [r3, #12]
  37 0006 F022     		mov	r2, #240
  38 0008 1A42     		tst	r2, r3
  39 000a 22D1     		bne	.L6
1444:Drivers/STM32L0xx_HAL_Driver/Src/stm32l0xx_hal_rcc.c ****   {
ARM GAS  /tmp/ccWNGGuS.s 			page 27


1445:Drivers/STM32L0xx_HAL_Driver/Src/stm32l0xx_hal_rcc.c ****     if(__HAL_RCC_PWR_IS_CLK_ENABLED())
  40              		.loc 1 1445 0
  41 000c 1A4B     		ldr	r3, .L10
  42 000e 9B6B     		ldr	r3, [r3, #56]
  43 0010 DB00     		lsl	r3, r3, #3
  44 0012 05D5     		bpl	.L3
1446:Drivers/STM32L0xx_HAL_Driver/Src/stm32l0xx_hal_rcc.c ****     {
1447:Drivers/STM32L0xx_HAL_Driver/Src/stm32l0xx_hal_rcc.c ****       vos = READ_BIT(PWR->CR, PWR_CR_VOS);
  45              		.loc 1 1447 0
  46 0014 194B     		ldr	r3, .L10+4
  47 0016 1A68     		ldr	r2, [r3]
  48 0018 C023     		mov	r3, #192
  49 001a 5B01     		lsl	r3, r3, #5
  50 001c 1340     		and	r3, r2
  51              	.LVL2:
  52 001e 0EE0     		b	.L4
  53              	.LVL3:
  54              	.L3:
1448:Drivers/STM32L0xx_HAL_Driver/Src/stm32l0xx_hal_rcc.c ****     }
1449:Drivers/STM32L0xx_HAL_Driver/Src/stm32l0xx_hal_rcc.c ****     else
1450:Drivers/STM32L0xx_HAL_Driver/Src/stm32l0xx_hal_rcc.c ****     {
1451:Drivers/STM32L0xx_HAL_Driver/Src/stm32l0xx_hal_rcc.c ****       __HAL_RCC_PWR_CLK_ENABLE();
  55              		.loc 1 1451 0
  56 0020 154A     		ldr	r2, .L10
  57 0022 936B     		ldr	r3, [r2, #56]
  58 0024 8021     		mov	r1, #128
  59 0026 4905     		lsl	r1, r1, #21
  60 0028 0B43     		orr	r3, r1
  61 002a 9363     		str	r3, [r2, #56]
1452:Drivers/STM32L0xx_HAL_Driver/Src/stm32l0xx_hal_rcc.c ****       vos = READ_BIT(PWR->CR, PWR_CR_VOS);
  62              		.loc 1 1452 0
  63 002c 134B     		ldr	r3, .L10+4
  64 002e 1968     		ldr	r1, [r3]
  65 0030 C023     		mov	r3, #192
  66 0032 5B01     		lsl	r3, r3, #5
  67 0034 0B40     		and	r3, r1
  68              	.LVL4:
1453:Drivers/STM32L0xx_HAL_Driver/Src/stm32l0xx_hal_rcc.c ****       __HAL_RCC_PWR_CLK_DISABLE();
  69              		.loc 1 1453 0
  70 0036 946B     		ldr	r4, [r2, #56]
  71 0038 1149     		ldr	r1, .L10+8
  72 003a 2140     		and	r1, r4
  73 003c 9163     		str	r1, [r2, #56]
  74              	.L4:
1454:Drivers/STM32L0xx_HAL_Driver/Src/stm32l0xx_hal_rcc.c ****     }
1455:Drivers/STM32L0xx_HAL_Driver/Src/stm32l0xx_hal_rcc.c ****     
1456:Drivers/STM32L0xx_HAL_Driver/Src/stm32l0xx_hal_rcc.c ****     /* Check if need to set latency 1 only for Range 3 & HCLK = 4MHz */
1457:Drivers/STM32L0xx_HAL_Driver/Src/stm32l0xx_hal_rcc.c ****     if((vos == PWR_REGULATOR_VOLTAGE_SCALE3) && (MSIrange == RCC_MSIRANGE_6))
  75              		.loc 1 1457 0
  76 003e C022     		mov	r2, #192
  77 0040 5201     		lsl	r2, r2, #5
  78 0042 9342     		cmp	r3, r2
  79 0044 07D1     		bne	.L7
  80              		.loc 1 1457 0 is_stmt 0 discriminator 1
  81 0046 C023     		mov	r3, #192
  82              	.LVL5:
  83 0048 1B02     		lsl	r3, r3, #8
ARM GAS  /tmp/ccWNGGuS.s 			page 28


  84 004a 9842     		cmp	r0, r3
  85 004c 05D0     		beq	.L8
1440:Drivers/STM32L0xx_HAL_Driver/Src/stm32l0xx_hal_rcc.c **** 
  86              		.loc 1 1440 0 is_stmt 1
  87 004e 0020     		mov	r0, #0
  88              	.LVL6:
  89 0050 04E0     		b	.L2
  90              	.LVL7:
  91              	.L6:
  92 0052 0020     		mov	r0, #0
  93              	.LVL8:
  94 0054 02E0     		b	.L2
  95              	.LVL9:
  96              	.L7:
  97 0056 0020     		mov	r0, #0
  98              	.LVL10:
  99 0058 00E0     		b	.L2
 100              	.LVL11:
 101              	.L8:
1458:Drivers/STM32L0xx_HAL_Driver/Src/stm32l0xx_hal_rcc.c ****     {
1459:Drivers/STM32L0xx_HAL_Driver/Src/stm32l0xx_hal_rcc.c ****       latency = FLASH_LATENCY_1; /* 1WS */
 102              		.loc 1 1459 0
 103 005a 0120     		mov	r0, #1
 104              	.LVL12:
 105              	.L2:
1460:Drivers/STM32L0xx_HAL_Driver/Src/stm32l0xx_hal_rcc.c ****     }
1461:Drivers/STM32L0xx_HAL_Driver/Src/stm32l0xx_hal_rcc.c ****   }
1462:Drivers/STM32L0xx_HAL_Driver/Src/stm32l0xx_hal_rcc.c ****   
1463:Drivers/STM32L0xx_HAL_Driver/Src/stm32l0xx_hal_rcc.c ****   __HAL_FLASH_SET_LATENCY(latency);
 106              		.loc 1 1463 0
 107 005c 094A     		ldr	r2, .L10+12
 108 005e 1368     		ldr	r3, [r2]
 109 0060 0121     		mov	r1, #1
 110 0062 8B43     		bic	r3, r1
 111 0064 0343     		orr	r3, r0
 112 0066 1360     		str	r3, [r2]
1464:Drivers/STM32L0xx_HAL_Driver/Src/stm32l0xx_hal_rcc.c ****   
1465:Drivers/STM32L0xx_HAL_Driver/Src/stm32l0xx_hal_rcc.c ****   /* Check that the new number of wait states is taken into account to access the Flash
1466:Drivers/STM32L0xx_HAL_Driver/Src/stm32l0xx_hal_rcc.c ****      memory by reading the FLASH_ACR register */
1467:Drivers/STM32L0xx_HAL_Driver/Src/stm32l0xx_hal_rcc.c ****   if((FLASH->ACR & FLASH_ACR_LATENCY) != latency)
 113              		.loc 1 1467 0
 114 0068 1368     		ldr	r3, [r2]
 115 006a 0B40     		and	r3, r1
 116 006c 8342     		cmp	r3, r0
 117 006e 01D0     		beq	.L9
1468:Drivers/STM32L0xx_HAL_Driver/Src/stm32l0xx_hal_rcc.c ****   {
1469:Drivers/STM32L0xx_HAL_Driver/Src/stm32l0xx_hal_rcc.c ****     return HAL_ERROR;
 118              		.loc 1 1469 0
 119 0070 0120     		mov	r0, #1
 120              	.LVL13:
 121 0072 00E0     		b	.L5
 122              	.LVL14:
 123              	.L9:
1470:Drivers/STM32L0xx_HAL_Driver/Src/stm32l0xx_hal_rcc.c ****   }
1471:Drivers/STM32L0xx_HAL_Driver/Src/stm32l0xx_hal_rcc.c ****   
1472:Drivers/STM32L0xx_HAL_Driver/Src/stm32l0xx_hal_rcc.c ****   return HAL_OK;
 124              		.loc 1 1472 0
ARM GAS  /tmp/ccWNGGuS.s 			page 29


 125 0074 0020     		mov	r0, #0
 126              	.LVL15:
 127              	.L5:
1473:Drivers/STM32L0xx_HAL_Driver/Src/stm32l0xx_hal_rcc.c **** }
 128              		.loc 1 1473 0
 129              		@ sp needed
 130 0076 10BD     		pop	{r4, pc}
 131              	.L11:
 132              		.align	2
 133              	.L10:
 134 0078 00100240 		.word	1073876992
 135 007c 00700040 		.word	1073770496
 136 0080 FFFFFFEF 		.word	-268435457
 137 0084 00200240 		.word	1073881088
 138              		.cfi_endproc
 139              	.LFE49:
 141              		.section	.text.HAL_RCC_DeInit,"ax",%progbits
 142              		.align	2
 143              		.global	HAL_RCC_DeInit
 144              		.code	16
 145              		.thumb_func
 147              	HAL_RCC_DeInit:
 148              	.LFB36:
 272:Drivers/STM32L0xx_HAL_Driver/Src/stm32l0xx_hal_rcc.c ****   __IO uint32_t tmpreg;
 149              		.loc 1 272 0
 150              		.cfi_startproc
 151 0000 82B0     		sub	sp, sp, #8
 152              	.LCFI1:
 153              		.cfi_def_cfa_offset 8
 276:Drivers/STM32L0xx_HAL_Driver/Src/stm32l0xx_hal_rcc.c ****   
 154              		.loc 1 276 0
 155 0002 174B     		ldr	r3, .L13
 156 0004 1A68     		ldr	r2, [r3]
 157 0006 8021     		mov	r1, #128
 158 0008 4900     		lsl	r1, r1, #1
 159 000a 0A43     		orr	r2, r1
 160 000c 1A60     		str	r2, [r3]
 279:Drivers/STM32L0xx_HAL_Driver/Src/stm32l0xx_hal_rcc.c **** 
 161              		.loc 1 279 0
 162 000e DA68     		ldr	r2, [r3, #12]
 163 0010 FD39     		sub	r1, r1, #253
 164 0012 8A43     		bic	r2, r1
 165 0014 DA60     		str	r2, [r3, #12]
 283:Drivers/STM32L0xx_HAL_Driver/Src/stm32l0xx_hal_rcc.c ****                      RCC_CR_HSEON | RCC_CR_CSSHSEON | RCC_CR_PLLON); 
 166              		.loc 1 283 0
 167 0016 1968     		ldr	r1, [r3]
 168 0018 124A     		ldr	r2, .L13+4
 169 001a 0A40     		and	r2, r1
 170 001c 1A60     		str	r2, [r3]
 294:Drivers/STM32L0xx_HAL_Driver/Src/stm32l0xx_hal_rcc.c ****   UNUSED(tmpreg); 
 171              		.loc 1 294 0
 172 001e 1968     		ldr	r1, [r3]
 173 0020 8022     		mov	r2, #128
 174 0022 5202     		lsl	r2, r2, #9
 175 0024 0A40     		and	r2, r1
 176 0026 0192     		str	r2, [sp, #4]
 295:Drivers/STM32L0xx_HAL_Driver/Src/stm32l0xx_hal_rcc.c **** 
ARM GAS  /tmp/ccWNGGuS.s 			page 30


 177              		.loc 1 295 0
 178 0028 019A     		ldr	r2, [sp, #4]
 298:Drivers/STM32L0xx_HAL_Driver/Src/stm32l0xx_hal_rcc.c ****   
 179              		.loc 1 298 0
 180 002a 1968     		ldr	r1, [r3]
 181 002c 0E4A     		ldr	r2, .L13+8
 182 002e 0A40     		and	r2, r1
 183 0030 1A60     		str	r2, [r3]
 301:Drivers/STM32L0xx_HAL_Driver/Src/stm32l0xx_hal_rcc.c ****   
 184              		.loc 1 301 0
 185 0032 0021     		mov	r1, #0
 186 0034 D960     		str	r1, [r3, #12]
 304:Drivers/STM32L0xx_HAL_Driver/Src/stm32l0xx_hal_rcc.c ****   
 187              		.loc 1 304 0
 188 0036 5868     		ldr	r0, [r3, #4]
 189 0038 0C4A     		ldr	r2, .L13+12
 190 003a 0240     		and	r2, r0
 191 003c A020     		mov	r0, #160
 192 003e 0002     		lsl	r0, r0, #8
 193 0040 0243     		orr	r2, r0
 194 0042 5A60     		str	r2, [r3, #4]
 307:Drivers/STM32L0xx_HAL_Driver/Src/stm32l0xx_hal_rcc.c ****   
 195              		.loc 1 307 0
 196 0044 5868     		ldr	r0, [r3, #4]
 197 0046 0A4A     		ldr	r2, .L13+16
 198 0048 0240     		and	r2, r0
 199 004a 8020     		mov	r0, #128
 200 004c 4001     		lsl	r0, r0, #5
 201 004e 0243     		orr	r2, r0
 202 0050 5A60     		str	r2, [r3, #4]
 310:Drivers/STM32L0xx_HAL_Driver/Src/stm32l0xx_hal_rcc.c **** 
 203              		.loc 1 310 0
 204 0052 1961     		str	r1, [r3, #16]
 313:Drivers/STM32L0xx_HAL_Driver/Src/stm32l0xx_hal_rcc.c **** }
 205              		.loc 1 313 0
 206 0054 074A     		ldr	r2, .L13+20
 207 0056 084B     		ldr	r3, .L13+24
 208 0058 1A60     		str	r2, [r3]
 314:Drivers/STM32L0xx_HAL_Driver/Src/stm32l0xx_hal_rcc.c **** 
 209              		.loc 1 314 0
 210 005a 02B0     		add	sp, sp, #8
 211              		@ sp needed
 212 005c 7047     		bx	lr
 213              	.L14:
 214 005e C046     		.align	2
 215              	.L13:
 216 0060 00100240 		.word	1073876992
 217 0064 D4FFF6FE 		.word	-17367084
 218 0068 FFFFFBFF 		.word	-262145
 219 006c FF1FFF00 		.word	16719871
 220 0070 FFE0FFFF 		.word	-7937
 221 0074 68FF1F00 		.word	2097000
 222 0078 00000000 		.word	SystemCoreClock
 223              		.cfi_endproc
 224              	.LFE36:
 226              		.section	.text.HAL_RCC_OscConfig,"ax",%progbits
 227              		.align	2
ARM GAS  /tmp/ccWNGGuS.s 			page 31


 228              		.global	HAL_RCC_OscConfig
 229              		.code	16
 230              		.thumb_func
 232              	HAL_RCC_OscConfig:
 233              	.LFB37:
 331:Drivers/STM32L0xx_HAL_Driver/Src/stm32l0xx_hal_rcc.c ****    uint32_t tickstart = 0U;
 234              		.loc 1 331 0
 235              		.cfi_startproc
 236              	.LVL16:
 237 0000 70B5     		push	{r4, r5, r6, lr}
 238              	.LCFI2:
 239              		.cfi_def_cfa_offset 16
 240              		.cfi_offset 4, -16
 241              		.cfi_offset 5, -12
 242              		.cfi_offset 6, -8
 243              		.cfi_offset 14, -4
 244 0002 82B0     		sub	sp, sp, #8
 245              	.LCFI3:
 246              		.cfi_def_cfa_offset 24
 247 0004 041C     		mov	r4, r0
 248              	.LVL17:
 339:Drivers/STM32L0xx_HAL_Driver/Src/stm32l0xx_hal_rcc.c ****   {
 249              		.loc 1 339 0
 250 0006 0368     		ldr	r3, [r0]
 251 0008 DB07     		lsl	r3, r3, #31
 252 000a 61D5     		bpl	.L16
 345:Drivers/STM32L0xx_HAL_Driver/Src/stm32l0xx_hal_rcc.c ****        || ((__HAL_RCC_GET_SYSCLK_SOURCE() == RCC_SYSCLKSOURCE_STATUS_PLLCLK) && (__HAL_RCC_GET_PLL_
 253              		.loc 1 345 0
 254 000c C84B     		ldr	r3, .L97
 255 000e DB68     		ldr	r3, [r3, #12]
 256 0010 0C22     		mov	r2, #12
 257 0012 1340     		and	r3, r2
 258 0014 082B     		cmp	r3, #8
 259 0016 08D0     		beq	.L17
 346:Drivers/STM32L0xx_HAL_Driver/Src/stm32l0xx_hal_rcc.c ****     {
 260              		.loc 1 346 0
 261 0018 C54B     		ldr	r3, .L97
 262 001a DB68     		ldr	r3, [r3, #12]
 263 001c 1340     		and	r3, r2
 264 001e 0C2B     		cmp	r3, #12
 265 0020 0BD1     		bne	.L18
 346:Drivers/STM32L0xx_HAL_Driver/Src/stm32l0xx_hal_rcc.c ****     {
 266              		.loc 1 346 0 is_stmt 0 discriminator 1
 267 0022 C34B     		ldr	r3, .L97
 268 0024 DB68     		ldr	r3, [r3, #12]
 269 0026 DB03     		lsl	r3, r3, #15
 270 0028 07D5     		bpl	.L18
 271              	.L17:
 348:Drivers/STM32L0xx_HAL_Driver/Src/stm32l0xx_hal_rcc.c ****       {
 272              		.loc 1 348 0 is_stmt 1
 273 002a C14B     		ldr	r3, .L97
 274 002c 1B68     		ldr	r3, [r3]
 275 002e 9B03     		lsl	r3, r3, #14
 276 0030 4ED5     		bpl	.L16
 348:Drivers/STM32L0xx_HAL_Driver/Src/stm32l0xx_hal_rcc.c ****       {
 277              		.loc 1 348 0 is_stmt 0 discriminator 1
 278 0032 6368     		ldr	r3, [r4, #4]
ARM GAS  /tmp/ccWNGGuS.s 			page 32


 279 0034 002B     		cmp	r3, #0
 280 0036 4BD1     		bne	.L16
 281 0038 3FE2     		b	.L75
 282              	.L18:
 283              	.LBB2:
 356:Drivers/STM32L0xx_HAL_Driver/Src/stm32l0xx_hal_rcc.c ****       
 284              		.loc 1 356 0 is_stmt 1
 285 003a 6368     		ldr	r3, [r4, #4]
 286 003c 8022     		mov	r2, #128
 287 003e 5202     		lsl	r2, r2, #9
 288 0040 9342     		cmp	r3, r2
 289 0042 06D1     		bne	.L20
 356:Drivers/STM32L0xx_HAL_Driver/Src/stm32l0xx_hal_rcc.c ****       
 290              		.loc 1 356 0 is_stmt 0 discriminator 1
 291 0044 BA4A     		ldr	r2, .L97
 292 0046 1368     		ldr	r3, [r2]
 293 0048 8021     		mov	r1, #128
 294 004a 4902     		lsl	r1, r1, #9
 295 004c 0B43     		orr	r3, r1
 296 004e 1360     		str	r3, [r2]
 297 0050 1EE0     		b	.L21
 298              	.L20:
 356:Drivers/STM32L0xx_HAL_Driver/Src/stm32l0xx_hal_rcc.c ****       
 299              		.loc 1 356 0 discriminator 2
 300 0052 A022     		mov	r2, #160
 301 0054 D202     		lsl	r2, r2, #11
 302 0056 9342     		cmp	r3, r2
 303 0058 0BD1     		bne	.L22
 356:Drivers/STM32L0xx_HAL_Driver/Src/stm32l0xx_hal_rcc.c ****       
 304              		.loc 1 356 0 discriminator 3
 305 005a B54B     		ldr	r3, .L97
 306 005c 1A68     		ldr	r2, [r3]
 307 005e 8021     		mov	r1, #128
 308 0060 C902     		lsl	r1, r1, #11
 309 0062 0A43     		orr	r2, r1
 310 0064 1A60     		str	r2, [r3]
 311 0066 1A68     		ldr	r2, [r3]
 312 0068 8021     		mov	r1, #128
 313 006a 4902     		lsl	r1, r1, #9
 314 006c 0A43     		orr	r2, r1
 315 006e 1A60     		str	r2, [r3]
 316 0070 0EE0     		b	.L21
 317              	.L22:
 356:Drivers/STM32L0xx_HAL_Driver/Src/stm32l0xx_hal_rcc.c ****       
 318              		.loc 1 356 0 discriminator 4
 319 0072 AF4B     		ldr	r3, .L97
 320 0074 1968     		ldr	r1, [r3]
 321 0076 AF4A     		ldr	r2, .L97+4
 322 0078 0A40     		and	r2, r1
 323 007a 1A60     		str	r2, [r3]
 324 007c 1968     		ldr	r1, [r3]
 325 007e 8022     		mov	r2, #128
 326 0080 5202     		lsl	r2, r2, #9
 327 0082 0A40     		and	r2, r1
 328 0084 0192     		str	r2, [sp, #4]
 329 0086 019A     		ldr	r2, [sp, #4]
 330 0088 1968     		ldr	r1, [r3]
ARM GAS  /tmp/ccWNGGuS.s 			page 33


 331 008a AB4A     		ldr	r2, .L97+8
 332 008c 0A40     		and	r2, r1
 333 008e 1A60     		str	r2, [r3]
 334              	.L21:
 335              	.LBE2:
 360:Drivers/STM32L0xx_HAL_Driver/Src/stm32l0xx_hal_rcc.c ****       {
 336              		.loc 1 360 0 is_stmt 1
 337 0090 6368     		ldr	r3, [r4, #4]
 338 0092 002B     		cmp	r3, #0
 339 0094 0ED0     		beq	.L23
 363:Drivers/STM32L0xx_HAL_Driver/Src/stm32l0xx_hal_rcc.c ****         
 340              		.loc 1 363 0
 341 0096 FFF7FEFF 		bl	HAL_GetTick
 342              	.LVL18:
 343 009a 051C     		mov	r5, r0
 344              	.LVL19:
 366:Drivers/STM32L0xx_HAL_Driver/Src/stm32l0xx_hal_rcc.c ****         {
 345              		.loc 1 366 0
 346 009c 05E0     		b	.L24
 347              	.LVL20:
 348              	.L25:
 368:Drivers/STM32L0xx_HAL_Driver/Src/stm32l0xx_hal_rcc.c ****           {
 349              		.loc 1 368 0
 350 009e FFF7FEFF 		bl	HAL_GetTick
 351              	.LVL21:
 352 00a2 401B     		sub	r0, r0, r5
 353 00a4 6428     		cmp	r0, #100
 354 00a6 00D9     		bls	.LCB331
 355 00a8 09E2     		b	.L76	@long jump
 356              	.LCB331:
 357              	.L24:
 366:Drivers/STM32L0xx_HAL_Driver/Src/stm32l0xx_hal_rcc.c ****         {
 358              		.loc 1 366 0
 359 00aa A14B     		ldr	r3, .L97
 360 00ac 1B68     		ldr	r3, [r3]
 361 00ae 9B03     		lsl	r3, r3, #14
 362 00b0 F5D5     		bpl	.L25
 363 00b2 0DE0     		b	.L16
 364              	.LVL22:
 365              	.L23:
 377:Drivers/STM32L0xx_HAL_Driver/Src/stm32l0xx_hal_rcc.c ****         
 366              		.loc 1 377 0
 367 00b4 FFF7FEFF 		bl	HAL_GetTick
 368              	.LVL23:
 369 00b8 051C     		mov	r5, r0
 370              	.LVL24:
 380:Drivers/STM32L0xx_HAL_Driver/Src/stm32l0xx_hal_rcc.c ****         {
 371              		.loc 1 380 0
 372 00ba 05E0     		b	.L26
 373              	.LVL25:
 374              	.L27:
 382:Drivers/STM32L0xx_HAL_Driver/Src/stm32l0xx_hal_rcc.c ****           {
 375              		.loc 1 382 0
 376 00bc FFF7FEFF 		bl	HAL_GetTick
 377              	.LVL26:
 378 00c0 401B     		sub	r0, r0, r5
 379 00c2 6428     		cmp	r0, #100
ARM GAS  /tmp/ccWNGGuS.s 			page 34


 380 00c4 00D9     		bls	.LCB360
 381 00c6 FCE1     		b	.L77	@long jump
 382              	.LCB360:
 383              	.L26:
 380:Drivers/STM32L0xx_HAL_Driver/Src/stm32l0xx_hal_rcc.c ****         {
 384              		.loc 1 380 0
 385 00c8 994B     		ldr	r3, .L97
 386 00ca 1B68     		ldr	r3, [r3]
 387 00cc 9B03     		lsl	r3, r3, #14
 388 00ce F5D4     		bmi	.L27
 389              	.LVL27:
 390              	.L16:
 391:Drivers/STM32L0xx_HAL_Driver/Src/stm32l0xx_hal_rcc.c ****   {
 391              		.loc 1 391 0
 392 00d0 2368     		ldr	r3, [r4]
 393 00d2 9B07     		lsl	r3, r3, #30
 394 00d4 52D5     		bpl	.L28
 398:Drivers/STM32L0xx_HAL_Driver/Src/stm32l0xx_hal_rcc.c ****        || ((__HAL_RCC_GET_SYSCLK_SOURCE() == RCC_SYSCLKSOURCE_STATUS_PLLCLK) && (__HAL_RCC_GET_PLL_
 395              		.loc 1 398 0
 396 00d6 964B     		ldr	r3, .L97
 397 00d8 DB68     		ldr	r3, [r3, #12]
 398 00da 0C22     		mov	r2, #12
 399 00dc 1340     		and	r3, r2
 400 00de 042B     		cmp	r3, #4
 401 00e0 08D0     		beq	.L29
 399:Drivers/STM32L0xx_HAL_Driver/Src/stm32l0xx_hal_rcc.c ****     {
 402              		.loc 1 399 0
 403 00e2 934B     		ldr	r3, .L97
 404 00e4 DB68     		ldr	r3, [r3, #12]
 405 00e6 1340     		and	r3, r2
 406 00e8 0C2B     		cmp	r3, #12
 407 00ea 14D1     		bne	.L30
 399:Drivers/STM32L0xx_HAL_Driver/Src/stm32l0xx_hal_rcc.c ****     {
 408              		.loc 1 399 0 is_stmt 0 discriminator 1
 409 00ec 904B     		ldr	r3, .L97
 410 00ee DB68     		ldr	r3, [r3, #12]
 411 00f0 DB03     		lsl	r3, r3, #15
 412 00f2 10D4     		bmi	.L30
 413              	.L29:
 402:Drivers/STM32L0xx_HAL_Driver/Src/stm32l0xx_hal_rcc.c ****       {
 414              		.loc 1 402 0 is_stmt 1
 415 00f4 8E4B     		ldr	r3, .L97
 416 00f6 1B68     		ldr	r3, [r3]
 417 00f8 5B07     		lsl	r3, r3, #29
 418 00fa 03D5     		bpl	.L31
 402:Drivers/STM32L0xx_HAL_Driver/Src/stm32l0xx_hal_rcc.c ****       {
 419              		.loc 1 402 0 is_stmt 0 discriminator 1
 420 00fc E368     		ldr	r3, [r4, #12]
 421 00fe 012B     		cmp	r3, #1
 422 0100 00D0     		beq	.LCB405
 423 0102 E0E1     		b	.L78	@long jump
 424              	.LCB405:
 425              	.L31:
 410:Drivers/STM32L0xx_HAL_Driver/Src/stm32l0xx_hal_rcc.c ****       }
 426              		.loc 1 410 0 is_stmt 1
 427 0104 8A49     		ldr	r1, .L97
 428 0106 4A68     		ldr	r2, [r1, #4]
ARM GAS  /tmp/ccWNGGuS.s 			page 35


 429 0108 8C4B     		ldr	r3, .L97+12
 430 010a 1340     		and	r3, r2
 431 010c 2269     		ldr	r2, [r4, #16]
 432 010e 1202     		lsl	r2, r2, #8
 433 0110 1343     		orr	r3, r2
 434 0112 4B60     		str	r3, [r1, #4]
 402:Drivers/STM32L0xx_HAL_Driver/Src/stm32l0xx_hal_rcc.c ****       {
 435              		.loc 1 402 0
 436 0114 32E0     		b	.L28
 437              	.L30:
 416:Drivers/STM32L0xx_HAL_Driver/Src/stm32l0xx_hal_rcc.c ****       {
 438              		.loc 1 416 0
 439 0116 E268     		ldr	r2, [r4, #12]
 440 0118 002A     		cmp	r2, #0
 441 011a 1CD0     		beq	.L32
 419:Drivers/STM32L0xx_HAL_Driver/Src/stm32l0xx_hal_rcc.c ****         
 442              		.loc 1 419 0
 443 011c 8449     		ldr	r1, .L97
 444 011e 0B68     		ldr	r3, [r1]
 445 0120 0920     		mov	r0, #9
 446 0122 8343     		bic	r3, r0
 447 0124 1343     		orr	r3, r2
 448 0126 0B60     		str	r3, [r1]
 422:Drivers/STM32L0xx_HAL_Driver/Src/stm32l0xx_hal_rcc.c ****         
 449              		.loc 1 422 0
 450 0128 FFF7FEFF 		bl	HAL_GetTick
 451              	.LVL28:
 452 012c 051C     		mov	r5, r0
 453              	.LVL29:
 425:Drivers/STM32L0xx_HAL_Driver/Src/stm32l0xx_hal_rcc.c ****         {
 454              		.loc 1 425 0
 455 012e 05E0     		b	.L33
 456              	.LVL30:
 457              	.L34:
 427:Drivers/STM32L0xx_HAL_Driver/Src/stm32l0xx_hal_rcc.c ****           {
 458              		.loc 1 427 0
 459 0130 FFF7FEFF 		bl	HAL_GetTick
 460              	.LVL31:
 461 0134 401B     		sub	r0, r0, r5
 462 0136 0228     		cmp	r0, #2
 463 0138 00D9     		bls	.LCB444
 464 013a C6E1     		b	.L79	@long jump
 465              	.LCB444:
 466              	.L33:
 425:Drivers/STM32L0xx_HAL_Driver/Src/stm32l0xx_hal_rcc.c ****         {
 467              		.loc 1 425 0
 468 013c 7C4B     		ldr	r3, .L97
 469 013e 1B68     		ldr	r3, [r3]
 470 0140 5B07     		lsl	r3, r3, #29
 471 0142 F5D5     		bpl	.L34
 434:Drivers/STM32L0xx_HAL_Driver/Src/stm32l0xx_hal_rcc.c ****       }
 472              		.loc 1 434 0
 473 0144 7A49     		ldr	r1, .L97
 474 0146 4A68     		ldr	r2, [r1, #4]
 475 0148 7C4B     		ldr	r3, .L97+12
 476 014a 1340     		and	r3, r2
 477 014c 2269     		ldr	r2, [r4, #16]
ARM GAS  /tmp/ccWNGGuS.s 			page 36


 478 014e 1202     		lsl	r2, r2, #8
 479 0150 1343     		orr	r3, r2
 480 0152 4B60     		str	r3, [r1, #4]
 481 0154 12E0     		b	.L28
 482              	.LVL32:
 483              	.L32:
 439:Drivers/STM32L0xx_HAL_Driver/Src/stm32l0xx_hal_rcc.c ****         
 484              		.loc 1 439 0
 485 0156 764A     		ldr	r2, .L97
 486 0158 1368     		ldr	r3, [r2]
 487 015a 0121     		mov	r1, #1
 488 015c 8B43     		bic	r3, r1
 489 015e 1360     		str	r3, [r2]
 442:Drivers/STM32L0xx_HAL_Driver/Src/stm32l0xx_hal_rcc.c ****         
 490              		.loc 1 442 0
 491 0160 FFF7FEFF 		bl	HAL_GetTick
 492              	.LVL33:
 493 0164 051C     		mov	r5, r0
 494              	.LVL34:
 445:Drivers/STM32L0xx_HAL_Driver/Src/stm32l0xx_hal_rcc.c ****         {
 495              		.loc 1 445 0
 496 0166 05E0     		b	.L35
 497              	.LVL35:
 498              	.L36:
 447:Drivers/STM32L0xx_HAL_Driver/Src/stm32l0xx_hal_rcc.c ****           {
 499              		.loc 1 447 0
 500 0168 FFF7FEFF 		bl	HAL_GetTick
 501              	.LVL36:
 502 016c 401B     		sub	r0, r0, r5
 503 016e 0228     		cmp	r0, #2
 504 0170 00D9     		bls	.LCB486
 505 0172 ACE1     		b	.L80	@long jump
 506              	.LCB486:
 507              	.L35:
 445:Drivers/STM32L0xx_HAL_Driver/Src/stm32l0xx_hal_rcc.c ****         {
 508              		.loc 1 445 0
 509 0174 6E4B     		ldr	r3, .L97
 510 0176 1B68     		ldr	r3, [r3]
 511 0178 5B07     		lsl	r3, r3, #29
 512 017a F5D4     		bmi	.L36
 513              	.LVL37:
 514              	.L28:
 456:Drivers/STM32L0xx_HAL_Driver/Src/stm32l0xx_hal_rcc.c ****   {
 515              		.loc 1 456 0
 516 017c 2368     		ldr	r3, [r4]
 517 017e DB06     		lsl	r3, r3, #27
 518 0180 00D4     		bmi	.LCB503
 519 0182 88E0     		b	.L37	@long jump
 520              	.LCB503:
 459:Drivers/STM32L0xx_HAL_Driver/Src/stm32l0xx_hal_rcc.c ****     {
 521              		.loc 1 459 0
 522 0184 6A4B     		ldr	r3, .L97
 523 0186 DB68     		ldr	r3, [r3, #12]
 524 0188 0C22     		mov	r2, #12
 525 018a 1A42     		tst	r2, r3
 526 018c 4AD1     		bne	.L38
 461:Drivers/STM32L0xx_HAL_Driver/Src/stm32l0xx_hal_rcc.c ****       {
ARM GAS  /tmp/ccWNGGuS.s 			page 37


 527              		.loc 1 461 0
 528 018e 684B     		ldr	r3, .L97
 529 0190 1B68     		ldr	r3, [r3]
 530 0192 9B05     		lsl	r3, r3, #22
 531 0194 03D5     		bpl	.L39
 461:Drivers/STM32L0xx_HAL_Driver/Src/stm32l0xx_hal_rcc.c ****       {
 532              		.loc 1 461 0 is_stmt 0 discriminator 1
 533 0196 A369     		ldr	r3, [r4, #24]
 534 0198 002B     		cmp	r3, #0
 535 019a 00D1     		bne	.LCB519
 536 019c 99E1     		b	.L81	@long jump
 537              	.LCB519:
 538              	.L39:
 475:Drivers/STM32L0xx_HAL_Driver/Src/stm32l0xx_hal_rcc.c ****         {
 539              		.loc 1 475 0 is_stmt 1
 540 019e 206A     		ldr	r0, [r4, #32]
 541 01a0 634B     		ldr	r3, .L97
 542 01a2 5A68     		ldr	r2, [r3, #4]
 543 01a4 E023     		mov	r3, #224
 544 01a6 1B02     		lsl	r3, r3, #8
 545 01a8 1340     		and	r3, r2
 546 01aa 9842     		cmp	r0, r3
 547 01ac 13D9     		bls	.L40
 478:Drivers/STM32L0xx_HAL_Driver/Src/stm32l0xx_hal_rcc.c ****           {
 548              		.loc 1 478 0
 549 01ae FFF7FEFF 		bl	RCC_SetFlashLatencyFromMSIRange
 550              	.LVL38:
 551 01b2 0028     		cmp	r0, #0
 552 01b4 00D0     		beq	.LCB532
 553 01b6 8EE1     		b	.L82	@long jump
 554              	.LCB532:
 484:Drivers/STM32L0xx_HAL_Driver/Src/stm32l0xx_hal_rcc.c ****           /* Adjusts the Multiple Speed oscillator (MSI) calibration value.*/
 555              		.loc 1 484 0
 556 01b8 5D49     		ldr	r1, .L97
 557 01ba 4A68     		ldr	r2, [r1, #4]
 558 01bc 604B     		ldr	r3, .L97+16
 559 01be 1340     		and	r3, r2
 560 01c0 226A     		ldr	r2, [r4, #32]
 561 01c2 1343     		orr	r3, r2
 562 01c4 4B60     		str	r3, [r1, #4]
 486:Drivers/STM32L0xx_HAL_Driver/Src/stm32l0xx_hal_rcc.c ****         }
 563              		.loc 1 486 0
 564 01c6 4B68     		ldr	r3, [r1, #4]
 565 01c8 1B02     		lsl	r3, r3, #8
 566 01ca 1B0A     		lsr	r3, r3, #8
 567 01cc E269     		ldr	r2, [r4, #28]
 568 01ce 1206     		lsl	r2, r2, #24
 569 01d0 1343     		orr	r3, r2
 570 01d2 4B60     		str	r3, [r1, #4]
 571 01d4 12E0     		b	.L41
 572              	.L40:
 492:Drivers/STM32L0xx_HAL_Driver/Src/stm32l0xx_hal_rcc.c ****           /* Adjusts the Multiple Speed oscillator (MSI) calibration value.*/
 573              		.loc 1 492 0
 574 01d6 5649     		ldr	r1, .L97
 575 01d8 4A68     		ldr	r2, [r1, #4]
 576 01da 594B     		ldr	r3, .L97+16
 577 01dc 1340     		and	r3, r2
ARM GAS  /tmp/ccWNGGuS.s 			page 38


 578 01de 1843     		orr	r0, r3
 579 01e0 4860     		str	r0, [r1, #4]
 494:Drivers/STM32L0xx_HAL_Driver/Src/stm32l0xx_hal_rcc.c **** 
 580              		.loc 1 494 0
 581 01e2 4B68     		ldr	r3, [r1, #4]
 582 01e4 1B02     		lsl	r3, r3, #8
 583 01e6 1B0A     		lsr	r3, r3, #8
 584 01e8 E269     		ldr	r2, [r4, #28]
 585 01ea 1206     		lsl	r2, r2, #24
 586 01ec 1343     		orr	r3, r2
 587 01ee 4B60     		str	r3, [r1, #4]
 497:Drivers/STM32L0xx_HAL_Driver/Src/stm32l0xx_hal_rcc.c ****           {
 588              		.loc 1 497 0
 589 01f0 206A     		ldr	r0, [r4, #32]
 590 01f2 FFF7FEFF 		bl	RCC_SetFlashLatencyFromMSIRange
 591              	.LVL39:
 592 01f6 0028     		cmp	r0, #0
 593 01f8 00D0     		beq	.LCB572
 594 01fa 6EE1     		b	.L83	@long jump
 595              	.LCB572:
 596              	.L41:
 504:Drivers/STM32L0xx_HAL_Driver/Src/stm32l0xx_hal_rcc.c ****                            >> AHBPrescTable[((RCC->CFGR & RCC_CFGR_HPRE) >> RCC_CFGR_HPRE_BITNUMBER
 597              		.loc 1 504 0
 598 01fc 236A     		ldr	r3, [r4, #32]
 599 01fe 5B0B     		lsr	r3, r3, #13
 600 0200 0133     		add	r3, r3, #1
 601 0202 8022     		mov	r2, #128
 602 0204 1202     		lsl	r2, r2, #8
 603 0206 9A40     		lsl	r2, r2, r3
 604 0208 131C     		mov	r3, r2
 505:Drivers/STM32L0xx_HAL_Driver/Src/stm32l0xx_hal_rcc.c **** 
 605              		.loc 1 505 0
 606 020a 494A     		ldr	r2, .L97
 607 020c D268     		ldr	r2, [r2, #12]
 608 020e 1206     		lsl	r2, r2, #24
 609 0210 120F     		lsr	r2, r2, #28
 610 0212 4C49     		ldr	r1, .L97+20
 611 0214 8A5C     		ldrb	r2, [r1, r2]
 612 0216 D340     		lsr	r3, r3, r2
 504:Drivers/STM32L0xx_HAL_Driver/Src/stm32l0xx_hal_rcc.c ****                            >> AHBPrescTable[((RCC->CFGR & RCC_CFGR_HPRE) >> RCC_CFGR_HPRE_BITNUMBER
 613              		.loc 1 504 0
 614 0218 4B4A     		ldr	r2, .L97+24
 615 021a 1360     		str	r3, [r2]
 508:Drivers/STM32L0xx_HAL_Driver/Src/stm32l0xx_hal_rcc.c ****       }
 616              		.loc 1 508 0
 617 021c 0020     		mov	r0, #0
 618 021e FFF7FEFF 		bl	HAL_InitTick
 619              	.LVL40:
 620 0222 38E0     		b	.L37
 621              	.L38:
 517:Drivers/STM32L0xx_HAL_Driver/Src/stm32l0xx_hal_rcc.c ****       {
 622              		.loc 1 517 0
 623 0224 A369     		ldr	r3, [r4, #24]
 624 0226 002B     		cmp	r3, #0
 625 0228 22D0     		beq	.L42
 520:Drivers/STM32L0xx_HAL_Driver/Src/stm32l0xx_hal_rcc.c **** 
 626              		.loc 1 520 0
ARM GAS  /tmp/ccWNGGuS.s 			page 39


 627 022a 414A     		ldr	r2, .L97
 628 022c 1368     		ldr	r3, [r2]
 629 022e 8021     		mov	r1, #128
 630 0230 4900     		lsl	r1, r1, #1
 631 0232 0B43     		orr	r3, r1
 632 0234 1360     		str	r3, [r2]
 523:Drivers/STM32L0xx_HAL_Driver/Src/stm32l0xx_hal_rcc.c **** 
 633              		.loc 1 523 0
 634 0236 FFF7FEFF 		bl	HAL_GetTick
 635              	.LVL41:
 636 023a 051C     		mov	r5, r0
 637              	.LVL42:
 526:Drivers/STM32L0xx_HAL_Driver/Src/stm32l0xx_hal_rcc.c ****         {
 638              		.loc 1 526 0
 639 023c 05E0     		b	.L43
 640              	.LVL43:
 641              	.L44:
 528:Drivers/STM32L0xx_HAL_Driver/Src/stm32l0xx_hal_rcc.c ****           {
 642              		.loc 1 528 0
 643 023e FFF7FEFF 		bl	HAL_GetTick
 644              	.LVL44:
 645 0242 401B     		sub	r0, r0, r5
 646 0244 0228     		cmp	r0, #2
 647 0246 00D9     		bls	.LCB624
 648 0248 49E1     		b	.L84	@long jump
 649              	.LCB624:
 650              	.L43:
 526:Drivers/STM32L0xx_HAL_Driver/Src/stm32l0xx_hal_rcc.c ****         {
 651              		.loc 1 526 0
 652 024a 394B     		ldr	r3, .L97
 653 024c 1B68     		ldr	r3, [r3]
 654 024e 9B05     		lsl	r3, r3, #22
 655 0250 F5D5     		bpl	.L44
 538:Drivers/STM32L0xx_HAL_Driver/Src/stm32l0xx_hal_rcc.c ****          /* Adjusts the Multiple Speed oscillator (MSI) calibration value.*/
 656              		.loc 1 538 0
 657 0252 3749     		ldr	r1, .L97
 658 0254 4A68     		ldr	r2, [r1, #4]
 659 0256 3A4B     		ldr	r3, .L97+16
 660 0258 1340     		and	r3, r2
 661 025a 226A     		ldr	r2, [r4, #32]
 662 025c 1343     		orr	r3, r2
 663 025e 4B60     		str	r3, [r1, #4]
 540:Drivers/STM32L0xx_HAL_Driver/Src/stm32l0xx_hal_rcc.c **** 
 664              		.loc 1 540 0
 665 0260 4B68     		ldr	r3, [r1, #4]
 666 0262 1B02     		lsl	r3, r3, #8
 667 0264 1B0A     		lsr	r3, r3, #8
 668 0266 E269     		ldr	r2, [r4, #28]
 669 0268 1206     		lsl	r2, r2, #24
 670 026a 1343     		orr	r3, r2
 671 026c 4B60     		str	r3, [r1, #4]
 672 026e 12E0     		b	.L37
 673              	.LVL45:
 674              	.L42:
 546:Drivers/STM32L0xx_HAL_Driver/Src/stm32l0xx_hal_rcc.c **** 
 675              		.loc 1 546 0
 676 0270 2F4A     		ldr	r2, .L97
ARM GAS  /tmp/ccWNGGuS.s 			page 40


 677 0272 1168     		ldr	r1, [r2]
 678 0274 354B     		ldr	r3, .L97+28
 679 0276 0B40     		and	r3, r1
 680 0278 1360     		str	r3, [r2]
 549:Drivers/STM32L0xx_HAL_Driver/Src/stm32l0xx_hal_rcc.c **** 
 681              		.loc 1 549 0
 682 027a FFF7FEFF 		bl	HAL_GetTick
 683              	.LVL46:
 684 027e 051C     		mov	r5, r0
 685              	.LVL47:
 552:Drivers/STM32L0xx_HAL_Driver/Src/stm32l0xx_hal_rcc.c ****         {
 686              		.loc 1 552 0
 687 0280 05E0     		b	.L45
 688              	.LVL48:
 689              	.L46:
 554:Drivers/STM32L0xx_HAL_Driver/Src/stm32l0xx_hal_rcc.c ****           {
 690              		.loc 1 554 0
 691 0282 FFF7FEFF 		bl	HAL_GetTick
 692              	.LVL49:
 693 0286 401B     		sub	r0, r0, r5
 694 0288 0228     		cmp	r0, #2
 695 028a 00D9     		bls	.LCB673
 696 028c 29E1     		b	.L85	@long jump
 697              	.LCB673:
 698              	.L45:
 552:Drivers/STM32L0xx_HAL_Driver/Src/stm32l0xx_hal_rcc.c ****         {
 699              		.loc 1 552 0
 700 028e 284B     		ldr	r3, .L97
 701 0290 1B68     		ldr	r3, [r3]
 702 0292 9B05     		lsl	r3, r3, #22
 703 0294 F5D4     		bmi	.L46
 704              	.LVL50:
 705              	.L37:
 563:Drivers/STM32L0xx_HAL_Driver/Src/stm32l0xx_hal_rcc.c ****   {
 706              		.loc 1 563 0
 707 0296 2368     		ldr	r3, [r4]
 708 0298 1B07     		lsl	r3, r3, #28
 709 029a 29D5     		bpl	.L47
 569:Drivers/STM32L0xx_HAL_Driver/Src/stm32l0xx_hal_rcc.c ****     {
 710              		.loc 1 569 0
 711 029c 6369     		ldr	r3, [r4, #20]
 712 029e 002B     		cmp	r3, #0
 713 02a0 13D0     		beq	.L48
 572:Drivers/STM32L0xx_HAL_Driver/Src/stm32l0xx_hal_rcc.c ****       
 714              		.loc 1 572 0
 715 02a2 234A     		ldr	r2, .L97
 716 02a4 116D     		ldr	r1, [r2, #80]
 717 02a6 0123     		mov	r3, #1
 718 02a8 0B43     		orr	r3, r1
 719 02aa 1365     		str	r3, [r2, #80]
 575:Drivers/STM32L0xx_HAL_Driver/Src/stm32l0xx_hal_rcc.c ****       
 720              		.loc 1 575 0
 721 02ac FFF7FEFF 		bl	HAL_GetTick
 722              	.LVL51:
 723 02b0 051C     		mov	r5, r0
 724              	.LVL52:
 578:Drivers/STM32L0xx_HAL_Driver/Src/stm32l0xx_hal_rcc.c ****       {
ARM GAS  /tmp/ccWNGGuS.s 			page 41


 725              		.loc 1 578 0
 726 02b2 05E0     		b	.L49
 727              	.LVL53:
 728              	.L50:
 580:Drivers/STM32L0xx_HAL_Driver/Src/stm32l0xx_hal_rcc.c ****         {
 729              		.loc 1 580 0
 730 02b4 FFF7FEFF 		bl	HAL_GetTick
 731              	.LVL54:
 732 02b8 401B     		sub	r0, r0, r5
 733 02ba 0228     		cmp	r0, #2
 734 02bc 00D9     		bls	.LCB713
 735 02be 12E1     		b	.L86	@long jump
 736              	.LCB713:
 737              	.L49:
 578:Drivers/STM32L0xx_HAL_Driver/Src/stm32l0xx_hal_rcc.c ****       {
 738              		.loc 1 578 0
 739 02c0 1B4B     		ldr	r3, .L97
 740 02c2 1B6D     		ldr	r3, [r3, #80]
 741 02c4 9B07     		lsl	r3, r3, #30
 742 02c6 F5D5     		bpl	.L50
 743 02c8 12E0     		b	.L47
 744              	.LVL55:
 745              	.L48:
 589:Drivers/STM32L0xx_HAL_Driver/Src/stm32l0xx_hal_rcc.c ****       
 746              		.loc 1 589 0
 747 02ca 194A     		ldr	r2, .L97
 748 02cc 136D     		ldr	r3, [r2, #80]
 749 02ce 0121     		mov	r1, #1
 750 02d0 8B43     		bic	r3, r1
 751 02d2 1365     		str	r3, [r2, #80]
 592:Drivers/STM32L0xx_HAL_Driver/Src/stm32l0xx_hal_rcc.c ****       
 752              		.loc 1 592 0
 753 02d4 FFF7FEFF 		bl	HAL_GetTick
 754              	.LVL56:
 755 02d8 051C     		mov	r5, r0
 756              	.LVL57:
 595:Drivers/STM32L0xx_HAL_Driver/Src/stm32l0xx_hal_rcc.c ****       {
 757              		.loc 1 595 0
 758 02da 05E0     		b	.L51
 759              	.LVL58:
 760              	.L52:
 597:Drivers/STM32L0xx_HAL_Driver/Src/stm32l0xx_hal_rcc.c ****         {
 761              		.loc 1 597 0
 762 02dc FFF7FEFF 		bl	HAL_GetTick
 763              	.LVL59:
 764 02e0 401B     		sub	r0, r0, r5
 765 02e2 0228     		cmp	r0, #2
 766 02e4 00D9     		bls	.LCB745
 767 02e6 00E1     		b	.L87	@long jump
 768              	.LCB745:
 769              	.L51:
 595:Drivers/STM32L0xx_HAL_Driver/Src/stm32l0xx_hal_rcc.c ****       {
 770              		.loc 1 595 0
 771 02e8 114B     		ldr	r3, .L97
 772 02ea 1B6D     		ldr	r3, [r3, #80]
 773 02ec 9B07     		lsl	r3, r3, #30
 774 02ee F5D4     		bmi	.L52
ARM GAS  /tmp/ccWNGGuS.s 			page 42


 775              	.LVL60:
 776              	.L47:
 605:Drivers/STM32L0xx_HAL_Driver/Src/stm32l0xx_hal_rcc.c ****   {
 777              		.loc 1 605 0
 778 02f0 2368     		ldr	r3, [r4]
 779 02f2 5B07     		lsl	r3, r3, #29
 780 02f4 00D4     		bmi	.LCB761
 781 02f6 90E0     		b	.L53	@long jump
 782              	.LCB761:
 783              	.LVL61:
 784              	.LBB3:
 614:Drivers/STM32L0xx_HAL_Driver/Src/stm32l0xx_hal_rcc.c ****     {
 785              		.loc 1 614 0
 786 02f8 0D4B     		ldr	r3, .L97
 787 02fa 9B6B     		ldr	r3, [r3, #56]
 788 02fc DB00     		lsl	r3, r3, #3
 789 02fe 07D4     		bmi	.L88
 616:Drivers/STM32L0xx_HAL_Driver/Src/stm32l0xx_hal_rcc.c ****       pwrclkchanged = SET;
 790              		.loc 1 616 0
 791 0300 0B4A     		ldr	r2, .L97
 792 0302 936B     		ldr	r3, [r2, #56]
 793 0304 8021     		mov	r1, #128
 794 0306 4905     		lsl	r1, r1, #21
 795 0308 0B43     		orr	r3, r1
 796 030a 9363     		str	r3, [r2, #56]
 797              	.LVL62:
 617:Drivers/STM32L0xx_HAL_Driver/Src/stm32l0xx_hal_rcc.c ****     }
 798              		.loc 1 617 0
 799 030c 0125     		mov	r5, #1
 800 030e 00E0     		b	.L54
 801              	.LVL63:
 802              	.L88:
 607:Drivers/STM32L0xx_HAL_Driver/Src/stm32l0xx_hal_rcc.c ****     
 803              		.loc 1 607 0
 804 0310 0025     		mov	r5, #0
 805              	.LVL64:
 806              	.L54:
 620:Drivers/STM32L0xx_HAL_Driver/Src/stm32l0xx_hal_rcc.c ****     {
 807              		.loc 1 620 0
 808 0312 0F4B     		ldr	r3, .L97+32
 809 0314 1B68     		ldr	r3, [r3]
 810 0316 DB05     		lsl	r3, r3, #23
 811 0318 26D4     		bmi	.L55
 623:Drivers/STM32L0xx_HAL_Driver/Src/stm32l0xx_hal_rcc.c ****       
 812              		.loc 1 623 0
 813 031a 0D4A     		ldr	r2, .L97+32
 814 031c 1368     		ldr	r3, [r2]
 815 031e 8021     		mov	r1, #128
 816 0320 4900     		lsl	r1, r1, #1
 817 0322 0B43     		orr	r3, r1
 818 0324 1360     		str	r3, [r2]
 626:Drivers/STM32L0xx_HAL_Driver/Src/stm32l0xx_hal_rcc.c **** 
 819              		.loc 1 626 0
 820 0326 FFF7FEFF 		bl	HAL_GetTick
 821              	.LVL65:
 822 032a 061C     		mov	r6, r0
 823              	.LVL66:
ARM GAS  /tmp/ccWNGGuS.s 			page 43


 628:Drivers/STM32L0xx_HAL_Driver/Src/stm32l0xx_hal_rcc.c ****       {
 824              		.loc 1 628 0
 825 032c 18E0     		b	.L56
 826              	.L98:
 827 032e C046     		.align	2
 828              	.L97:
 829 0330 00100240 		.word	1073876992
 830 0334 FFFFFEFF 		.word	-65537
 831 0338 FFFFFBFF 		.word	-262145
 832 033c FFE0FFFF 		.word	-7937
 833 0340 FF1FFFFF 		.word	-57345
 834 0344 00000000 		.word	AHBPrescTable
 835 0348 00000000 		.word	SystemCoreClock
 836 034c FFFEFFFF 		.word	-257
 837 0350 00700040 		.word	1073770496
 838              	.LVL67:
 839              	.L57:
 630:Drivers/STM32L0xx_HAL_Driver/Src/stm32l0xx_hal_rcc.c ****         {
 840              		.loc 1 630 0
 841 0354 FFF7FEFF 		bl	HAL_GetTick
 842              	.LVL68:
 843 0358 801B     		sub	r0, r0, r6
 844 035a 6428     		cmp	r0, #100
 845 035c 00D9     		bls	.LCB827
 846 035e C6E0     		b	.L89	@long jump
 847              	.LCB827:
 848              	.L56:
 628:Drivers/STM32L0xx_HAL_Driver/Src/stm32l0xx_hal_rcc.c ****       {
 849              		.loc 1 628 0
 850 0360 6B4B     		ldr	r3, .L99
 851 0362 1B68     		ldr	r3, [r3]
 852 0364 DB05     		lsl	r3, r3, #23
 853 0366 F5D5     		bpl	.L57
 854              	.LVL69:
 855              	.L55:
 638:Drivers/STM32L0xx_HAL_Driver/Src/stm32l0xx_hal_rcc.c ****     /* Check the LSE State */
 856              		.loc 1 638 0
 857 0368 A368     		ldr	r3, [r4, #8]
 858 036a 8022     		mov	r2, #128
 859 036c 5200     		lsl	r2, r2, #1
 860 036e 9342     		cmp	r3, r2
 861 0370 06D1     		bne	.L58
 638:Drivers/STM32L0xx_HAL_Driver/Src/stm32l0xx_hal_rcc.c ****     /* Check the LSE State */
 862              		.loc 1 638 0 is_stmt 0 discriminator 1
 863 0372 684A     		ldr	r2, .L99+4
 864 0374 136D     		ldr	r3, [r2, #80]
 865 0376 8021     		mov	r1, #128
 866 0378 4900     		lsl	r1, r1, #1
 867 037a 0B43     		orr	r3, r1
 868 037c 1365     		str	r3, [r2, #80]
 869 037e 24E0     		b	.L59
 870              	.L58:
 638:Drivers/STM32L0xx_HAL_Driver/Src/stm32l0xx_hal_rcc.c ****     /* Check the LSE State */
 871              		.loc 1 638 0 discriminator 2
 872 0380 002B     		cmp	r3, #0
 873 0382 09D1     		bne	.L60
 638:Drivers/STM32L0xx_HAL_Driver/Src/stm32l0xx_hal_rcc.c ****     /* Check the LSE State */
ARM GAS  /tmp/ccWNGGuS.s 			page 44


 874              		.loc 1 638 0 discriminator 3
 875 0384 634B     		ldr	r3, .L99+4
 876 0386 196D     		ldr	r1, [r3, #80]
 877 0388 634A     		ldr	r2, .L99+8
 878 038a 0A40     		and	r2, r1
 879 038c 1A65     		str	r2, [r3, #80]
 880 038e 196D     		ldr	r1, [r3, #80]
 881 0390 624A     		ldr	r2, .L99+12
 882 0392 0A40     		and	r2, r1
 883 0394 1A65     		str	r2, [r3, #80]
 884 0396 18E0     		b	.L59
 885              	.L60:
 638:Drivers/STM32L0xx_HAL_Driver/Src/stm32l0xx_hal_rcc.c ****     /* Check the LSE State */
 886              		.loc 1 638 0 discriminator 4
 887 0398 A022     		mov	r2, #160
 888 039a D200     		lsl	r2, r2, #3
 889 039c 9342     		cmp	r3, r2
 890 039e 0BD1     		bne	.L61
 638:Drivers/STM32L0xx_HAL_Driver/Src/stm32l0xx_hal_rcc.c ****     /* Check the LSE State */
 891              		.loc 1 638 0 discriminator 5
 892 03a0 5C4B     		ldr	r3, .L99+4
 893 03a2 1A6D     		ldr	r2, [r3, #80]
 894 03a4 8021     		mov	r1, #128
 895 03a6 C900     		lsl	r1, r1, #3
 896 03a8 0A43     		orr	r2, r1
 897 03aa 1A65     		str	r2, [r3, #80]
 898 03ac 1A6D     		ldr	r2, [r3, #80]
 899 03ae 8021     		mov	r1, #128
 900 03b0 4900     		lsl	r1, r1, #1
 901 03b2 0A43     		orr	r2, r1
 902 03b4 1A65     		str	r2, [r3, #80]
 903 03b6 08E0     		b	.L59
 904              	.L61:
 638:Drivers/STM32L0xx_HAL_Driver/Src/stm32l0xx_hal_rcc.c ****     /* Check the LSE State */
 905              		.loc 1 638 0 discriminator 6
 906 03b8 564B     		ldr	r3, .L99+4
 907 03ba 196D     		ldr	r1, [r3, #80]
 908 03bc 564A     		ldr	r2, .L99+8
 909 03be 0A40     		and	r2, r1
 910 03c0 1A65     		str	r2, [r3, #80]
 911 03c2 196D     		ldr	r1, [r3, #80]
 912 03c4 554A     		ldr	r2, .L99+12
 913 03c6 0A40     		and	r2, r1
 914 03c8 1A65     		str	r2, [r3, #80]
 915              	.L59:
 640:Drivers/STM32L0xx_HAL_Driver/Src/stm32l0xx_hal_rcc.c ****     {
 916              		.loc 1 640 0 is_stmt 1
 917 03ca A368     		ldr	r3, [r4, #8]
 918 03cc 002B     		cmp	r3, #0
 919 03ce 0FD0     		beq	.L62
 643:Drivers/STM32L0xx_HAL_Driver/Src/stm32l0xx_hal_rcc.c ****       
 920              		.loc 1 643 0
 921 03d0 FFF7FEFF 		bl	HAL_GetTick
 922              	.LVL70:
 923 03d4 061C     		mov	r6, r0
 924              	.LVL71:
 646:Drivers/STM32L0xx_HAL_Driver/Src/stm32l0xx_hal_rcc.c ****       {
ARM GAS  /tmp/ccWNGGuS.s 			page 45


 925              		.loc 1 646 0
 926 03d6 06E0     		b	.L63
 927              	.LVL72:
 928              	.L64:
 648:Drivers/STM32L0xx_HAL_Driver/Src/stm32l0xx_hal_rcc.c ****         {
 929              		.loc 1 648 0
 930 03d8 FFF7FEFF 		bl	HAL_GetTick
 931              	.LVL73:
 932 03dc 801B     		sub	r0, r0, r6
 933 03de 504B     		ldr	r3, .L99+16
 934 03e0 9842     		cmp	r0, r3
 935 03e2 00D9     		bls	.LCB916
 936 03e4 85E0     		b	.L90	@long jump
 937              	.LCB916:
 938              	.L63:
 646:Drivers/STM32L0xx_HAL_Driver/Src/stm32l0xx_hal_rcc.c ****       {
 939              		.loc 1 646 0
 940 03e6 4B4B     		ldr	r3, .L99+4
 941 03e8 1B6D     		ldr	r3, [r3, #80]
 942 03ea 9B05     		lsl	r3, r3, #22
 943 03ec F4D5     		bpl	.L64
 944 03ee 0DE0     		b	.L65
 945              	.LVL74:
 946              	.L62:
 657:Drivers/STM32L0xx_HAL_Driver/Src/stm32l0xx_hal_rcc.c ****       
 947              		.loc 1 657 0
 948 03f0 FFF7FEFF 		bl	HAL_GetTick
 949              	.LVL75:
 950 03f4 061C     		mov	r6, r0
 951              	.LVL76:
 660:Drivers/STM32L0xx_HAL_Driver/Src/stm32l0xx_hal_rcc.c ****       {
 952              		.loc 1 660 0
 953 03f6 05E0     		b	.L66
 954              	.LVL77:
 955              	.L67:
 662:Drivers/STM32L0xx_HAL_Driver/Src/stm32l0xx_hal_rcc.c ****         {
 956              		.loc 1 662 0
 957 03f8 FFF7FEFF 		bl	HAL_GetTick
 958              	.LVL78:
 959 03fc 801B     		sub	r0, r0, r6
 960 03fe 484B     		ldr	r3, .L99+16
 961 0400 9842     		cmp	r0, r3
 962 0402 78D8     		bhi	.L91
 963              	.L66:
 660:Drivers/STM32L0xx_HAL_Driver/Src/stm32l0xx_hal_rcc.c ****       {
 964              		.loc 1 660 0
 965 0404 434B     		ldr	r3, .L99+4
 966 0406 1B6D     		ldr	r3, [r3, #80]
 967 0408 9B05     		lsl	r3, r3, #22
 968 040a F5D4     		bmi	.L67
 969              	.L65:
 670:Drivers/STM32L0xx_HAL_Driver/Src/stm32l0xx_hal_rcc.c ****     {
 970              		.loc 1 670 0
 971 040c 012D     		cmp	r5, #1
 972 040e 04D1     		bne	.L53
 672:Drivers/STM32L0xx_HAL_Driver/Src/stm32l0xx_hal_rcc.c ****     }
 973              		.loc 1 672 0
ARM GAS  /tmp/ccWNGGuS.s 			page 46


 974 0410 404A     		ldr	r2, .L99+4
 975 0412 916B     		ldr	r1, [r2, #56]
 976 0414 434B     		ldr	r3, .L99+20
 977 0416 0B40     		and	r3, r1
 978 0418 9363     		str	r3, [r2, #56]
 979              	.LVL79:
 980              	.L53:
 981              	.LBE3:
 724:Drivers/STM32L0xx_HAL_Driver/Src/stm32l0xx_hal_rcc.c ****   {
 982              		.loc 1 724 0
 983 041a 636A     		ldr	r3, [r4, #36]
 984 041c 002B     		cmp	r3, #0
 985 041e 6CD0     		beq	.L92
 727:Drivers/STM32L0xx_HAL_Driver/Src/stm32l0xx_hal_rcc.c ****     { 
 986              		.loc 1 727 0
 987 0420 3C4A     		ldr	r2, .L99+4
 988 0422 D268     		ldr	r2, [r2, #12]
 989 0424 0C21     		mov	r1, #12
 990 0426 0A40     		and	r2, r1
 991 0428 0C2A     		cmp	r2, #12
 992 042a 68D0     		beq	.L93
 729:Drivers/STM32L0xx_HAL_Driver/Src/stm32l0xx_hal_rcc.c ****       {
 993              		.loc 1 729 0
 994 042c 022B     		cmp	r3, #2
 995 042e 30D1     		bne	.L68
 737:Drivers/STM32L0xx_HAL_Driver/Src/stm32l0xx_hal_rcc.c ****         
 996              		.loc 1 737 0
 997 0430 384A     		ldr	r2, .L99+4
 998 0432 1168     		ldr	r1, [r2]
 999 0434 3C4B     		ldr	r3, .L99+24
 1000 0436 0B40     		and	r3, r1
 1001 0438 1360     		str	r3, [r2]
 740:Drivers/STM32L0xx_HAL_Driver/Src/stm32l0xx_hal_rcc.c ****         
 1002              		.loc 1 740 0
 1003 043a FFF7FEFF 		bl	HAL_GetTick
 1004              	.LVL80:
 1005 043e 051C     		mov	r5, r0
 1006              	.LVL81:
 743:Drivers/STM32L0xx_HAL_Driver/Src/stm32l0xx_hal_rcc.c ****         {
 1007              		.loc 1 743 0
 1008 0440 04E0     		b	.L69
 1009              	.LVL82:
 1010              	.L70:
 745:Drivers/STM32L0xx_HAL_Driver/Src/stm32l0xx_hal_rcc.c ****           {
 1011              		.loc 1 745 0
 1012 0442 FFF7FEFF 		bl	HAL_GetTick
 1013              	.LVL83:
 1014 0446 401B     		sub	r0, r0, r5
 1015 0448 0228     		cmp	r0, #2
 1016 044a 5AD8     		bhi	.L94
 1017              	.L69:
 743:Drivers/STM32L0xx_HAL_Driver/Src/stm32l0xx_hal_rcc.c ****         {
 1018              		.loc 1 743 0
 1019 044c 314B     		ldr	r3, .L99+4
 1020 044e 1B68     		ldr	r3, [r3]
 1021 0450 9B01     		lsl	r3, r3, #6
 1022 0452 F6D4     		bmi	.L70
ARM GAS  /tmp/ccWNGGuS.s 			page 47


 752:Drivers/STM32L0xx_HAL_Driver/Src/stm32l0xx_hal_rcc.c ****                              RCC_OscInitStruct->PLL.PLLMUL,
 1023              		.loc 1 752 0
 1024 0454 2F49     		ldr	r1, .L99+4
 1025 0456 C868     		ldr	r0, [r1, #12]
 1026 0458 344B     		ldr	r3, .L99+28
 1027 045a 1840     		and	r0, r3
 1028 045c A36A     		ldr	r3, [r4, #40]
 1029 045e E26A     		ldr	r2, [r4, #44]
 1030 0460 1343     		orr	r3, r2
 1031 0462 226B     		ldr	r2, [r4, #48]
 1032 0464 1343     		orr	r3, r2
 1033 0466 0343     		orr	r3, r0
 1034 0468 CB60     		str	r3, [r1, #12]
 756:Drivers/STM32L0xx_HAL_Driver/Src/stm32l0xx_hal_rcc.c ****         
 1035              		.loc 1 756 0
 1036 046a 0B68     		ldr	r3, [r1]
 1037 046c 8022     		mov	r2, #128
 1038 046e 5204     		lsl	r2, r2, #17
 1039 0470 1343     		orr	r3, r2
 1040 0472 0B60     		str	r3, [r1]
 759:Drivers/STM32L0xx_HAL_Driver/Src/stm32l0xx_hal_rcc.c ****         
 1041              		.loc 1 759 0
 1042 0474 FFF7FEFF 		bl	HAL_GetTick
 1043              	.LVL84:
 1044 0478 041C     		mov	r4, r0
 1045              	.LVL85:
 762:Drivers/STM32L0xx_HAL_Driver/Src/stm32l0xx_hal_rcc.c ****         {
 1046              		.loc 1 762 0
 1047 047a 04E0     		b	.L71
 1048              	.LVL86:
 1049              	.L72:
 764:Drivers/STM32L0xx_HAL_Driver/Src/stm32l0xx_hal_rcc.c ****           {
 1050              		.loc 1 764 0
 1051 047c FFF7FEFF 		bl	HAL_GetTick
 1052              	.LVL87:
 1053 0480 001B     		sub	r0, r0, r4
 1054 0482 0228     		cmp	r0, #2
 1055 0484 3FD8     		bhi	.L95
 1056              	.L71:
 762:Drivers/STM32L0xx_HAL_Driver/Src/stm32l0xx_hal_rcc.c ****         {
 1057              		.loc 1 762 0
 1058 0486 234B     		ldr	r3, .L99+4
 1059 0488 1B68     		ldr	r3, [r3]
 1060 048a 9B01     		lsl	r3, r3, #6
 1061 048c F6D5     		bpl	.L72
 794:Drivers/STM32L0xx_HAL_Driver/Src/stm32l0xx_hal_rcc.c **** }
 1062              		.loc 1 794 0
 1063 048e 0020     		mov	r0, #0
 1064 0490 3CE0     		b	.L19
 1065              	.LVL88:
 1066              	.L68:
 773:Drivers/STM32L0xx_HAL_Driver/Src/stm32l0xx_hal_rcc.c ****  
 1067              		.loc 1 773 0
 1068 0492 204A     		ldr	r2, .L99+4
 1069 0494 1168     		ldr	r1, [r2]
 1070 0496 244B     		ldr	r3, .L99+24
 1071 0498 0B40     		and	r3, r1
ARM GAS  /tmp/ccWNGGuS.s 			page 48


 1072 049a 1360     		str	r3, [r2]
 776:Drivers/STM32L0xx_HAL_Driver/Src/stm32l0xx_hal_rcc.c ****         
 1073              		.loc 1 776 0
 1074 049c FFF7FEFF 		bl	HAL_GetTick
 1075              	.LVL89:
 1076 04a0 041C     		mov	r4, r0
 1077              	.LVL90:
 779:Drivers/STM32L0xx_HAL_Driver/Src/stm32l0xx_hal_rcc.c ****         {
 1078              		.loc 1 779 0
 1079 04a2 04E0     		b	.L73
 1080              	.LVL91:
 1081              	.L74:
 781:Drivers/STM32L0xx_HAL_Driver/Src/stm32l0xx_hal_rcc.c ****           {
 1082              		.loc 1 781 0
 1083 04a4 FFF7FEFF 		bl	HAL_GetTick
 1084              	.LVL92:
 1085 04a8 001B     		sub	r0, r0, r4
 1086 04aa 0228     		cmp	r0, #2
 1087 04ac 2DD8     		bhi	.L96
 1088              	.L73:
 779:Drivers/STM32L0xx_HAL_Driver/Src/stm32l0xx_hal_rcc.c ****         {
 1089              		.loc 1 779 0
 1090 04ae 194B     		ldr	r3, .L99+4
 1091 04b0 1B68     		ldr	r3, [r3]
 1092 04b2 9B01     		lsl	r3, r3, #6
 1093 04b4 F6D4     		bmi	.L74
 794:Drivers/STM32L0xx_HAL_Driver/Src/stm32l0xx_hal_rcc.c **** }
 1094              		.loc 1 794 0
 1095 04b6 0020     		mov	r0, #0
 1096 04b8 28E0     		b	.L19
 1097              	.LVL93:
 1098              	.L75:
 350:Drivers/STM32L0xx_HAL_Driver/Src/stm32l0xx_hal_rcc.c ****       }
 1099              		.loc 1 350 0
 1100 04ba 0120     		mov	r0, #1
 1101              	.LVL94:
 1102 04bc 26E0     		b	.L19
 1103              	.LVL95:
 1104              	.L76:
 370:Drivers/STM32L0xx_HAL_Driver/Src/stm32l0xx_hal_rcc.c ****           }
 1105              		.loc 1 370 0
 1106 04be 0320     		mov	r0, #3
 1107 04c0 24E0     		b	.L19
 1108              	.L77:
 384:Drivers/STM32L0xx_HAL_Driver/Src/stm32l0xx_hal_rcc.c ****           }
 1109              		.loc 1 384 0
 1110 04c2 0320     		mov	r0, #3
 1111 04c4 22E0     		b	.L19
 1112              	.LVL96:
 1113              	.L78:
 404:Drivers/STM32L0xx_HAL_Driver/Src/stm32l0xx_hal_rcc.c ****       }
 1114              		.loc 1 404 0
 1115 04c6 0120     		mov	r0, #1
 1116 04c8 20E0     		b	.L19
 1117              	.LVL97:
 1118              	.L79:
 429:Drivers/STM32L0xx_HAL_Driver/Src/stm32l0xx_hal_rcc.c ****           }
ARM GAS  /tmp/ccWNGGuS.s 			page 49


 1119              		.loc 1 429 0
 1120 04ca 0320     		mov	r0, #3
 1121 04cc 1EE0     		b	.L19
 1122              	.L80:
 449:Drivers/STM32L0xx_HAL_Driver/Src/stm32l0xx_hal_rcc.c ****           }
 1123              		.loc 1 449 0
 1124 04ce 0320     		mov	r0, #3
 1125 04d0 1CE0     		b	.L19
 1126              	.LVL98:
 1127              	.L81:
 463:Drivers/STM32L0xx_HAL_Driver/Src/stm32l0xx_hal_rcc.c ****       }
 1128              		.loc 1 463 0
 1129 04d2 0120     		mov	r0, #1
 1130 04d4 1AE0     		b	.L19
 1131              	.L82:
 480:Drivers/STM32L0xx_HAL_Driver/Src/stm32l0xx_hal_rcc.c ****           }
 1132              		.loc 1 480 0
 1133 04d6 0120     		mov	r0, #1
 1134 04d8 18E0     		b	.L19
 1135              	.L83:
 499:Drivers/STM32L0xx_HAL_Driver/Src/stm32l0xx_hal_rcc.c ****           }          
 1136              		.loc 1 499 0
 1137 04da 0120     		mov	r0, #1
 1138 04dc 16E0     		b	.L19
 1139              	.LVL99:
 1140              	.L84:
 530:Drivers/STM32L0xx_HAL_Driver/Src/stm32l0xx_hal_rcc.c ****           }
 1141              		.loc 1 530 0
 1142 04de 0320     		mov	r0, #3
 1143 04e0 14E0     		b	.L19
 1144              	.L85:
 556:Drivers/STM32L0xx_HAL_Driver/Src/stm32l0xx_hal_rcc.c ****           }
 1145              		.loc 1 556 0
 1146 04e2 0320     		mov	r0, #3
 1147 04e4 12E0     		b	.L19
 1148              	.L86:
 582:Drivers/STM32L0xx_HAL_Driver/Src/stm32l0xx_hal_rcc.c ****         }
 1149              		.loc 1 582 0
 1150 04e6 0320     		mov	r0, #3
 1151 04e8 10E0     		b	.L19
 1152              	.L87:
 599:Drivers/STM32L0xx_HAL_Driver/Src/stm32l0xx_hal_rcc.c ****         }
 1153              		.loc 1 599 0
 1154 04ea 0320     		mov	r0, #3
 1155 04ec 0EE0     		b	.L19
 1156              	.LVL100:
 1157              	.L89:
 1158              	.LBB4:
 632:Drivers/STM32L0xx_HAL_Driver/Src/stm32l0xx_hal_rcc.c ****         }
 1159              		.loc 1 632 0
 1160 04ee 0320     		mov	r0, #3
 1161 04f0 0CE0     		b	.L19
 1162              	.L90:
 650:Drivers/STM32L0xx_HAL_Driver/Src/stm32l0xx_hal_rcc.c ****         }
 1163              		.loc 1 650 0
 1164 04f2 0320     		mov	r0, #3
 1165 04f4 0AE0     		b	.L19
ARM GAS  /tmp/ccWNGGuS.s 			page 50


 1166              	.L91:
 664:Drivers/STM32L0xx_HAL_Driver/Src/stm32l0xx_hal_rcc.c ****         }
 1167              		.loc 1 664 0
 1168 04f6 0320     		mov	r0, #3
 1169 04f8 08E0     		b	.L19
 1170              	.LVL101:
 1171              	.L92:
 1172              	.LBE4:
 794:Drivers/STM32L0xx_HAL_Driver/Src/stm32l0xx_hal_rcc.c **** }
 1173              		.loc 1 794 0
 1174 04fa 0020     		mov	r0, #0
 1175 04fc 06E0     		b	.L19
 1176              	.L93:
 790:Drivers/STM32L0xx_HAL_Driver/Src/stm32l0xx_hal_rcc.c ****     }
 1177              		.loc 1 790 0
 1178 04fe 0120     		mov	r0, #1
 1179 0500 04E0     		b	.L19
 1180              	.LVL102:
 1181              	.L94:
 747:Drivers/STM32L0xx_HAL_Driver/Src/stm32l0xx_hal_rcc.c ****           }
 1182              		.loc 1 747 0
 1183 0502 0320     		mov	r0, #3
 1184 0504 02E0     		b	.L19
 1185              	.LVL103:
 1186              	.L95:
 766:Drivers/STM32L0xx_HAL_Driver/Src/stm32l0xx_hal_rcc.c ****           }
 1187              		.loc 1 766 0
 1188 0506 0320     		mov	r0, #3
 1189 0508 00E0     		b	.L19
 1190              	.L96:
 783:Drivers/STM32L0xx_HAL_Driver/Src/stm32l0xx_hal_rcc.c ****           }
 1191              		.loc 1 783 0
 1192 050a 0320     		mov	r0, #3
 1193              	.LVL104:
 1194              	.L19:
 795:Drivers/STM32L0xx_HAL_Driver/Src/stm32l0xx_hal_rcc.c **** 
 1195              		.loc 1 795 0
 1196 050c 02B0     		add	sp, sp, #8
 1197              		@ sp needed
 1198 050e 70BD     		pop	{r4, r5, r6, pc}
 1199              	.L100:
 1200              		.align	2
 1201              	.L99:
 1202 0510 00700040 		.word	1073770496
 1203 0514 00100240 		.word	1073876992
 1204 0518 FFFEFFFF 		.word	-257
 1205 051c FFFBFFFF 		.word	-1025
 1206 0520 88130000 		.word	5000
 1207 0524 FFFFFFEF 		.word	-268435457
 1208 0528 FFFFFFFE 		.word	-16777217
 1209 052c FFFF02FF 		.word	-16580609
 1210              		.cfi_endproc
 1211              	.LFE37:
 1213              		.section	.text.HAL_RCC_MCOConfig,"ax",%progbits
 1214              		.align	2
 1215              		.global	HAL_RCC_MCOConfig
 1216              		.code	16
ARM GAS  /tmp/ccWNGGuS.s 			page 51


 1217              		.thumb_func
 1219              	HAL_RCC_MCOConfig:
 1220              	.LFB39:
1061:Drivers/STM32L0xx_HAL_Driver/Src/stm32l0xx_hal_rcc.c ****   GPIO_InitTypeDef gpio = {0};
 1221              		.loc 1 1061 0
 1222              		.cfi_startproc
 1223              	.LVL105:
 1224 0000 30B5     		push	{r4, r5, lr}
 1225              	.LCFI4:
 1226              		.cfi_def_cfa_offset 12
 1227              		.cfi_offset 4, -12
 1228              		.cfi_offset 5, -8
 1229              		.cfi_offset 14, -4
 1230 0002 89B0     		sub	sp, sp, #36
 1231              	.LCFI5:
 1232              		.cfi_def_cfa_offset 48
 1233 0004 0D1C     		mov	r5, r1
 1234 0006 141C     		mov	r4, r2
1062:Drivers/STM32L0xx_HAL_Driver/Src/stm32l0xx_hal_rcc.c **** 
 1235              		.loc 1 1062 0
 1236 0008 0023     		mov	r3, #0
 1237 000a 0593     		str	r3, [sp, #20]
 1238 000c 0793     		str	r3, [sp, #28]
1070:Drivers/STM32L0xx_HAL_Driver/Src/stm32l0xx_hal_rcc.c ****   gpio.Speed     = GPIO_SPEED_FREQ_HIGH;
 1239              		.loc 1 1070 0
 1240 000e 0233     		add	r3, r3, #2
 1241 0010 0493     		str	r3, [sp, #16]
1071:Drivers/STM32L0xx_HAL_Driver/Src/stm32l0xx_hal_rcc.c ****   gpio.Pull      = GPIO_NOPULL;
 1242              		.loc 1 1071 0
 1243 0012 0693     		str	r3, [sp, #24]
1073:Drivers/STM32L0xx_HAL_Driver/Src/stm32l0xx_hal_rcc.c ****   {    
 1244              		.loc 1 1073 0
 1245 0014 0028     		cmp	r0, #0
 1246 0016 10D1     		bne	.L102
1075:Drivers/STM32L0xx_HAL_Driver/Src/stm32l0xx_hal_rcc.c ****     gpio.Alternate = GPIO_AF0_MCO;
 1247              		.loc 1 1075 0
 1248 0018 FE33     		add	r3, r3, #254
 1249 001a 0393     		str	r3, [sp, #12]
 1250              	.LBB5:
1079:Drivers/STM32L0xx_HAL_Driver/Src/stm32l0xx_hal_rcc.c ****     HAL_GPIO_Init(MCO1_GPIO_PORT, &gpio);
 1251              		.loc 1 1079 0
 1252 001c 1E4A     		ldr	r2, .L105
 1253              	.LVL106:
 1254 001e D16A     		ldr	r1, [r2, #44]
 1255              	.LVL107:
 1256 0020 0130     		add	r0, r0, #1
 1257              	.LVL108:
 1258 0022 0143     		orr	r1, r0
 1259 0024 D162     		str	r1, [r2, #44]
 1260 0026 D36A     		ldr	r3, [r2, #44]
 1261 0028 0340     		and	r3, r0
 1262 002a 0093     		str	r3, [sp]
 1263 002c 009B     		ldr	r3, [sp]
 1264              	.LBE5:
1080:Drivers/STM32L0xx_HAL_Driver/Src/stm32l0xx_hal_rcc.c ****   }
 1265              		.loc 1 1080 0
 1266 002e A020     		mov	r0, #160
ARM GAS  /tmp/ccWNGGuS.s 			page 52


 1267              	.LVL109:
 1268 0030 C005     		lsl	r0, r0, #23
 1269 0032 03A9     		add	r1, sp, #12
 1270 0034 FFF7FEFF 		bl	HAL_GPIO_Init
 1271              	.LVL110:
 1272 0038 24E0     		b	.L103
 1273              	.LVL111:
 1274              	.L102:
1084:Drivers/STM32L0xx_HAL_Driver/Src/stm32l0xx_hal_rcc.c ****   {
 1275              		.loc 1 1084 0
 1276 003a 0228     		cmp	r0, #2
 1277 003c 11D1     		bne	.L104
1086:Drivers/STM32L0xx_HAL_Driver/Src/stm32l0xx_hal_rcc.c ****     gpio.Alternate = GPIO_AF2_MCO;
 1278              		.loc 1 1086 0
 1279 003e 8023     		mov	r3, #128
 1280 0040 9B01     		lsl	r3, r3, #6
 1281 0042 0393     		str	r3, [sp, #12]
1087:Drivers/STM32L0xx_HAL_Driver/Src/stm32l0xx_hal_rcc.c ****     
 1282              		.loc 1 1087 0
 1283 0044 0222     		mov	r2, #2
 1284              	.LVL112:
 1285 0046 0792     		str	r2, [sp, #28]
 1286              	.LBB6:
1090:Drivers/STM32L0xx_HAL_Driver/Src/stm32l0xx_hal_rcc.c ****     HAL_GPIO_Init(MCO3_GPIO_PORT, &gpio);
 1287              		.loc 1 1090 0
 1288 0048 134B     		ldr	r3, .L105
 1289 004a D96A     		ldr	r1, [r3, #44]
 1290              	.LVL113:
 1291 004c 1143     		orr	r1, r2
 1292 004e D962     		str	r1, [r3, #44]
 1293 0050 DB6A     		ldr	r3, [r3, #44]
 1294 0052 1340     		and	r3, r2
 1295 0054 0193     		str	r3, [sp, #4]
 1296 0056 019B     		ldr	r3, [sp, #4]
 1297              	.LBE6:
1091:Drivers/STM32L0xx_HAL_Driver/Src/stm32l0xx_hal_rcc.c ****   }
 1298              		.loc 1 1091 0
 1299 0058 1048     		ldr	r0, .L105+4
 1300              	.LVL114:
 1301 005a 03A9     		add	r1, sp, #12
 1302 005c FFF7FEFF 		bl	HAL_GPIO_Init
 1303              	.LVL115:
 1304 0060 10E0     		b	.L103
 1305              	.LVL116:
 1306              	.L104:
1096:Drivers/STM32L0xx_HAL_Driver/Src/stm32l0xx_hal_rcc.c ****     gpio.Alternate = GPIO_AF0_MCO;
 1307              		.loc 1 1096 0
 1308 0062 8023     		mov	r3, #128
 1309 0064 9B00     		lsl	r3, r3, #2
 1310 0066 0393     		str	r3, [sp, #12]
 1311              	.LBB7:
1100:Drivers/STM32L0xx_HAL_Driver/Src/stm32l0xx_hal_rcc.c ****     HAL_GPIO_Init(MCO2_GPIO_PORT, &gpio);
 1312              		.loc 1 1100 0
 1313 0068 0B4A     		ldr	r2, .L105
 1314              	.LVL117:
 1315 006a D16A     		ldr	r1, [r2, #44]
 1316              	.LVL118:
ARM GAS  /tmp/ccWNGGuS.s 			page 53


 1317 006c 0120     		mov	r0, #1
 1318              	.LVL119:
 1319 006e 0143     		orr	r1, r0
 1320 0070 D162     		str	r1, [r2, #44]
 1321 0072 D36A     		ldr	r3, [r2, #44]
 1322 0074 0340     		and	r3, r0
 1323 0076 0293     		str	r3, [sp, #8]
 1324 0078 029B     		ldr	r3, [sp, #8]
 1325              	.LBE7:
1101:Drivers/STM32L0xx_HAL_Driver/Src/stm32l0xx_hal_rcc.c ****   }    
 1326              		.loc 1 1101 0
 1327 007a A020     		mov	r0, #160
 1328 007c C005     		lsl	r0, r0, #23
 1329 007e 03A9     		add	r1, sp, #12
 1330 0080 FFF7FEFF 		bl	HAL_GPIO_Init
 1331              	.LVL120:
 1332              	.L103:
1105:Drivers/STM32L0xx_HAL_Driver/Src/stm32l0xx_hal_rcc.c **** }
 1333              		.loc 1 1105 0
 1334 0084 044A     		ldr	r2, .L105
 1335 0086 D168     		ldr	r1, [r2, #12]
 1336 0088 054B     		ldr	r3, .L105+8
 1337 008a 0B40     		and	r3, r1
 1338 008c 2C43     		orr	r4, r5
 1339              	.LVL121:
 1340 008e 1C43     		orr	r4, r3
 1341 0090 D460     		str	r4, [r2, #12]
1106:Drivers/STM32L0xx_HAL_Driver/Src/stm32l0xx_hal_rcc.c **** 
 1342              		.loc 1 1106 0
 1343 0092 09B0     		add	sp, sp, #36
 1344              		@ sp needed
 1345              	.LVL122:
 1346 0094 30BD     		pop	{r4, r5, pc}
 1347              	.L106:
 1348 0096 C046     		.align	2
 1349              	.L105:
 1350 0098 00100240 		.word	1073876992
 1351 009c 00040050 		.word	1342178304
 1352 00a0 FFFFFF80 		.word	-2130706433
 1353              		.cfi_endproc
 1354              	.LFE39:
 1356              		.section	.text.HAL_RCC_EnableCSS,"ax",%progbits
 1357              		.align	2
 1358              		.global	HAL_RCC_EnableCSS
 1359              		.code	16
 1360              		.thumb_func
 1362              	HAL_RCC_EnableCSS:
 1363              	.LFB40:
1119:Drivers/STM32L0xx_HAL_Driver/Src/stm32l0xx_hal_rcc.c ****   SET_BIT(RCC->CR, RCC_CR_CSSON) ;
 1364              		.loc 1 1119 0
 1365              		.cfi_startproc
1120:Drivers/STM32L0xx_HAL_Driver/Src/stm32l0xx_hal_rcc.c **** }
 1366              		.loc 1 1120 0
 1367 0000 034A     		ldr	r2, .L108
 1368 0002 1368     		ldr	r3, [r2]
 1369 0004 8021     		mov	r1, #128
 1370 0006 0903     		lsl	r1, r1, #12
ARM GAS  /tmp/ccWNGGuS.s 			page 54


 1371 0008 0B43     		orr	r3, r1
 1372 000a 1360     		str	r3, [r2]
1121:Drivers/STM32L0xx_HAL_Driver/Src/stm32l0xx_hal_rcc.c **** 
 1373              		.loc 1 1121 0
 1374              		@ sp needed
 1375 000c 7047     		bx	lr
 1376              	.L109:
 1377 000e C046     		.align	2
 1378              	.L108:
 1379 0010 00100240 		.word	1073876992
 1380              		.cfi_endproc
 1381              	.LFE40:
 1383              		.global	__aeabi_uidiv
 1384              		.section	.text.HAL_RCC_GetSysClockFreq,"ax",%progbits
 1385              		.align	2
 1386              		.global	HAL_RCC_GetSysClockFreq
 1387              		.code	16
 1388              		.thumb_func
 1390              	HAL_RCC_GetSysClockFreq:
 1391              	.LFB41:
1155:Drivers/STM32L0xx_HAL_Driver/Src/stm32l0xx_hal_rcc.c ****   uint32_t tmpreg = 0, pllm = 0, plld = 0, pllvco = 0, msiclkrange = 0;
 1392              		.loc 1 1155 0
 1393              		.cfi_startproc
 1394 0000 08B5     		push	{r3, lr}
 1395              	.LCFI6:
 1396              		.cfi_def_cfa_offset 8
 1397              		.cfi_offset 3, -8
 1398              		.cfi_offset 14, -4
 1399              	.LVL123:
1159:Drivers/STM32L0xx_HAL_Driver/Src/stm32l0xx_hal_rcc.c ****   
 1400              		.loc 1 1159 0
 1401 0002 1E4B     		ldr	r3, .L121
 1402 0004 D968     		ldr	r1, [r3, #12]
 1403              	.LVL124:
1162:Drivers/STM32L0xx_HAL_Driver/Src/stm32l0xx_hal_rcc.c ****   {
 1404              		.loc 1 1162 0
 1405 0006 0C23     		mov	r3, #12
 1406 0008 0B40     		and	r3, r1
 1407 000a 082B     		cmp	r3, #8
 1408 000c 31D0     		beq	.L118
 1409 000e 0C2B     		cmp	r3, #12
 1410 0010 07D0     		beq	.L113
 1411 0012 042B     		cmp	r3, #4
 1412 0014 23D1     		bne	.L120
1166:Drivers/STM32L0xx_HAL_Driver/Src/stm32l0xx_hal_rcc.c ****       {
 1413              		.loc 1 1166 0
 1414 0016 194B     		ldr	r3, .L121
 1415 0018 1B68     		ldr	r3, [r3]
 1416 001a DB06     		lsl	r3, r3, #27
 1417 001c 2BD5     		bpl	.L119
1168:Drivers/STM32L0xx_HAL_Driver/Src/stm32l0xx_hal_rcc.c ****       }
 1418              		.loc 1 1168 0
 1419 001e 1848     		ldr	r0, .L121+4
 1420 0020 2AE0     		b	.L112
 1421              	.L113:
1183:Drivers/STM32L0xx_HAL_Driver/Src/stm32l0xx_hal_rcc.c ****       plld = ((uint32_t)(tmpreg & RCC_CFGR_PLLDIV) >> RCC_CFGR_PLLDIV_BITNUMBER) + 1;
 1422              		.loc 1 1183 0
ARM GAS  /tmp/ccWNGGuS.s 			page 55


 1423 0022 8B02     		lsl	r3, r1, #10
 1424 0024 1B0F     		lsr	r3, r3, #28
 1425 0026 174A     		ldr	r2, .L121+8
 1426 0028 D05C     		ldrb	r0, [r2, r3]
 1427              	.LVL125:
1184:Drivers/STM32L0xx_HAL_Driver/Src/stm32l0xx_hal_rcc.c ****       if (__HAL_RCC_GET_PLL_OSCSOURCE() != RCC_PLLSOURCE_HSI)
 1428              		.loc 1 1184 0
 1429 002a 0902     		lsl	r1, r1, #8
 1430              	.LVL126:
 1431 002c 890F     		lsr	r1, r1, #30
 1432 002e 0131     		add	r1, r1, #1
 1433              	.LVL127:
1185:Drivers/STM32L0xx_HAL_Driver/Src/stm32l0xx_hal_rcc.c ****       {
 1434              		.loc 1 1185 0
 1435 0030 124B     		ldr	r3, .L121
 1436 0032 DB68     		ldr	r3, [r3, #12]
 1437 0034 DB03     		lsl	r3, r3, #15
 1438 0036 04D5     		bpl	.L115
1188:Drivers/STM32L0xx_HAL_Driver/Src/stm32l0xx_hal_rcc.c ****       }
 1439              		.loc 1 1188 0
 1440 0038 134B     		ldr	r3, .L121+12
 1441 003a 5843     		mul	r0, r3
 1442              	.LVL128:
 1443 003c FFF7FEFF 		bl	__aeabi_uidiv
 1444              	.LVL129:
 1445 0040 1AE0     		b	.L112
 1446              	.LVL130:
 1447              	.L115:
1192:Drivers/STM32L0xx_HAL_Driver/Src/stm32l0xx_hal_rcc.c ****         {
 1448              		.loc 1 1192 0
 1449 0042 0E4B     		ldr	r3, .L121
 1450 0044 1B68     		ldr	r3, [r3]
 1451 0046 DB06     		lsl	r3, r3, #27
 1452 0048 04D5     		bpl	.L117
1194:Drivers/STM32L0xx_HAL_Driver/Src/stm32l0xx_hal_rcc.c ****         }
 1453              		.loc 1 1194 0
 1454 004a 0D4B     		ldr	r3, .L121+4
 1455 004c 5843     		mul	r0, r3
 1456              	.LVL131:
 1457 004e FFF7FEFF 		bl	__aeabi_uidiv
 1458              	.LVL132:
 1459 0052 11E0     		b	.L112
 1460              	.LVL133:
 1461              	.L117:
1198:Drivers/STM32L0xx_HAL_Driver/Src/stm32l0xx_hal_rcc.c ****         }
 1462              		.loc 1 1198 0
 1463 0054 0D4B     		ldr	r3, .L121+16
 1464 0056 5843     		mul	r0, r3
 1465              	.LVL134:
 1466 0058 FFF7FEFF 		bl	__aeabi_uidiv
 1467              	.LVL135:
1202:Drivers/STM32L0xx_HAL_Driver/Src/stm32l0xx_hal_rcc.c ****     }
 1468              		.loc 1 1202 0
 1469 005c 0CE0     		b	.L112
 1470              	.LVL136:
 1471              	.L120:
1207:Drivers/STM32L0xx_HAL_Driver/Src/stm32l0xx_hal_rcc.c ****       sysclockfreq = (32768 * (1 << (msiclkrange + 1)));
ARM GAS  /tmp/ccWNGGuS.s 			page 56


 1472              		.loc 1 1207 0
 1473 005e 074B     		ldr	r3, .L121
 1474 0060 5868     		ldr	r0, [r3, #4]
 1475 0062 0004     		lsl	r0, r0, #16
 1476 0064 400F     		lsr	r0, r0, #29
 1477              	.LVL137:
1208:Drivers/STM32L0xx_HAL_Driver/Src/stm32l0xx_hal_rcc.c ****       break;
 1478              		.loc 1 1208 0
 1479 0066 0130     		add	r0, r0, #1
 1480              	.LVL138:
 1481 0068 8023     		mov	r3, #128
 1482 006a 1B02     		lsl	r3, r3, #8
 1483 006c 8340     		lsl	r3, r3, r0
 1484 006e 181C     		mov	r0, r3
 1485              	.LVL139:
1209:Drivers/STM32L0xx_HAL_Driver/Src/stm32l0xx_hal_rcc.c ****     }
 1486              		.loc 1 1209 0
 1487 0070 02E0     		b	.L112
 1488              	.LVL140:
 1489              	.L118:
1178:Drivers/STM32L0xx_HAL_Driver/Src/stm32l0xx_hal_rcc.c ****       break;
 1490              		.loc 1 1178 0
 1491 0072 0548     		ldr	r0, .L121+12
 1492 0074 00E0     		b	.L112
 1493              	.L119:
1172:Drivers/STM32L0xx_HAL_Driver/Src/stm32l0xx_hal_rcc.c ****       }
 1494              		.loc 1 1172 0
 1495 0076 0548     		ldr	r0, .L121+16
 1496              	.LVL141:
 1497              	.L112:
1213:Drivers/STM32L0xx_HAL_Driver/Src/stm32l0xx_hal_rcc.c **** 
 1498              		.loc 1 1213 0
 1499              		@ sp needed
 1500 0078 08BD     		pop	{r3, pc}
 1501              	.L122:
 1502 007a C046     		.align	2
 1503              	.L121:
 1504 007c 00100240 		.word	1073876992
 1505 0080 00093D00 		.word	4000000
 1506 0084 00000000 		.word	PLLMulTable
 1507 0088 00127A00 		.word	8000000
 1508 008c 0024F400 		.word	16000000
 1509              		.cfi_endproc
 1510              	.LFE41:
 1512              		.section	.text.HAL_RCC_ClockConfig,"ax",%progbits
 1513              		.align	2
 1514              		.global	HAL_RCC_ClockConfig
 1515              		.code	16
 1516              		.thumb_func
 1518              	HAL_RCC_ClockConfig:
 1519              	.LFB38:
 824:Drivers/STM32L0xx_HAL_Driver/Src/stm32l0xx_hal_rcc.c ****   uint32_t tickstart = 0U;
 1520              		.loc 1 824 0
 1521              		.cfi_startproc
 1522              	.LVL142:
 1523 0000 70B5     		push	{r4, r5, r6, lr}
 1524              	.LCFI7:
ARM GAS  /tmp/ccWNGGuS.s 			page 57


 1525              		.cfi_def_cfa_offset 16
 1526              		.cfi_offset 4, -16
 1527              		.cfi_offset 5, -12
 1528              		.cfi_offset 6, -8
 1529              		.cfi_offset 14, -4
 1530              	.LVL143:
 837:Drivers/STM32L0xx_HAL_Driver/Src/stm32l0xx_hal_rcc.c ****   {    
 1531              		.loc 1 837 0
 1532 0002 644B     		ldr	r3, .L157
 1533 0004 1B68     		ldr	r3, [r3]
 1534 0006 0122     		mov	r2, #1
 1535 0008 1340     		and	r3, r2
 1536 000a 8B42     		cmp	r3, r1
 1537 000c 0AD2     		bcs	.L124
 840:Drivers/STM32L0xx_HAL_Driver/Src/stm32l0xx_hal_rcc.c ****     
 1538              		.loc 1 840 0
 1539 000e 614A     		ldr	r2, .L157
 1540 0010 1368     		ldr	r3, [r2]
 1541 0012 0124     		mov	r4, #1
 1542 0014 A343     		bic	r3, r4
 1543 0016 0B43     		orr	r3, r1
 1544 0018 1360     		str	r3, [r2]
 844:Drivers/STM32L0xx_HAL_Driver/Src/stm32l0xx_hal_rcc.c ****     {
 1545              		.loc 1 844 0
 1546 001a 1368     		ldr	r3, [r2]
 1547 001c 2340     		and	r3, r4
 1548 001e 8B42     		cmp	r3, r1
 1549 0020 00D0     		beq	.LCB1603
 1550 0022 A3E0     		b	.L145	@long jump
 1551              	.LCB1603:
 1552              	.L124:
 851:Drivers/STM32L0xx_HAL_Driver/Src/stm32l0xx_hal_rcc.c ****   {
 1553              		.loc 1 851 0
 1554 0024 0368     		ldr	r3, [r0]
 1555 0026 9B07     		lsl	r3, r3, #30
 1556 0028 06D5     		bpl	.L126
 854:Drivers/STM32L0xx_HAL_Driver/Src/stm32l0xx_hal_rcc.c ****   }
 1557              		.loc 1 854 0
 1558 002a 5B4A     		ldr	r2, .L157+4
 1559 002c D368     		ldr	r3, [r2, #12]
 1560 002e F024     		mov	r4, #240
 1561 0030 A343     		bic	r3, r4
 1562 0032 8468     		ldr	r4, [r0, #8]
 1563 0034 2343     		orr	r3, r4
 1564 0036 D360     		str	r3, [r2, #12]
 1565              	.L126:
 1566 0038 0D1C     		mov	r5, r1
 1567 003a 041C     		mov	r4, r0
 858:Drivers/STM32L0xx_HAL_Driver/Src/stm32l0xx_hal_rcc.c ****   {    
 1568              		.loc 1 858 0
 1569 003c 0368     		ldr	r3, [r0]
 1570 003e DB07     		lsl	r3, r3, #31
 1571 0040 5FD5     		bpl	.L127
 863:Drivers/STM32L0xx_HAL_Driver/Src/stm32l0xx_hal_rcc.c ****     {
 1572              		.loc 1 863 0
 1573 0042 4368     		ldr	r3, [r0, #4]
 1574 0044 022B     		cmp	r3, #2
ARM GAS  /tmp/ccWNGGuS.s 			page 58


 1575 0046 04D1     		bne	.L128
 866:Drivers/STM32L0xx_HAL_Driver/Src/stm32l0xx_hal_rcc.c ****       {
 1576              		.loc 1 866 0
 1577 0048 534A     		ldr	r2, .L157+4
 1578 004a 1268     		ldr	r2, [r2]
 1579 004c 9203     		lsl	r2, r2, #14
 1580 004e 13D4     		bmi	.L129
 1581 0050 8EE0     		b	.L146
 1582              	.L128:
 872:Drivers/STM32L0xx_HAL_Driver/Src/stm32l0xx_hal_rcc.c ****     {
 1583              		.loc 1 872 0
 1584 0052 032B     		cmp	r3, #3
 1585 0054 04D1     		bne	.L130
 875:Drivers/STM32L0xx_HAL_Driver/Src/stm32l0xx_hal_rcc.c ****       {
 1586              		.loc 1 875 0
 1587 0056 504A     		ldr	r2, .L157+4
 1588 0058 1268     		ldr	r2, [r2]
 1589 005a 9201     		lsl	r2, r2, #6
 1590 005c 0CD4     		bmi	.L129
 1591 005e 89E0     		b	.L147
 1592              	.L130:
 881:Drivers/STM32L0xx_HAL_Driver/Src/stm32l0xx_hal_rcc.c ****     {
 1593              		.loc 1 881 0
 1594 0060 012B     		cmp	r3, #1
 1595 0062 04D1     		bne	.L131
 884:Drivers/STM32L0xx_HAL_Driver/Src/stm32l0xx_hal_rcc.c ****       {
 1596              		.loc 1 884 0
 1597 0064 4C4A     		ldr	r2, .L157+4
 1598 0066 1268     		ldr	r2, [r2]
 1599 0068 5207     		lsl	r2, r2, #29
 1600 006a 05D4     		bmi	.L129
 1601 006c 84E0     		b	.L148
 1602              	.L131:
 893:Drivers/STM32L0xx_HAL_Driver/Src/stm32l0xx_hal_rcc.c ****       {
 1603              		.loc 1 893 0
 1604 006e 4A4A     		ldr	r2, .L157+4
 1605 0070 1268     		ldr	r2, [r2]
 1606 0072 9205     		lsl	r2, r2, #22
 1607 0074 00D4     		bmi	.LCB1673
 1608 0076 81E0     		b	.L149	@long jump
 1609              	.LCB1673:
 1610              	.L129:
 898:Drivers/STM32L0xx_HAL_Driver/Src/stm32l0xx_hal_rcc.c **** 
 1611              		.loc 1 898 0
 1612 0078 4749     		ldr	r1, .L157+4
 1613              	.LVL144:
 1614 007a CA68     		ldr	r2, [r1, #12]
 1615 007c 0320     		mov	r0, #3
 1616              	.LVL145:
 1617 007e 8243     		bic	r2, r0
 1618 0080 1343     		orr	r3, r2
 1619 0082 CB60     		str	r3, [r1, #12]
 901:Drivers/STM32L0xx_HAL_Driver/Src/stm32l0xx_hal_rcc.c ****     
 1620              		.loc 1 901 0
 1621 0084 FFF7FEFF 		bl	HAL_GetTick
 1622              	.LVL146:
 1623 0088 061C     		mov	r6, r0
ARM GAS  /tmp/ccWNGGuS.s 			page 59


 1624              	.LVL147:
 903:Drivers/STM32L0xx_HAL_Driver/Src/stm32l0xx_hal_rcc.c ****     {
 1625              		.loc 1 903 0
 1626 008a 6368     		ldr	r3, [r4, #4]
 1627 008c 022B     		cmp	r3, #2
 1628 008e 0DD1     		bne	.L155
 1629 0090 05E0     		b	.L132
 1630              	.LVL148:
 1631              	.L134:
 907:Drivers/STM32L0xx_HAL_Driver/Src/stm32l0xx_hal_rcc.c ****         {
 1632              		.loc 1 907 0
 1633 0092 FFF7FEFF 		bl	HAL_GetTick
 1634              	.LVL149:
 1635 0096 801B     		sub	r0, r0, r6
 1636 0098 404B     		ldr	r3, .L157+8
 1637 009a 9842     		cmp	r0, r3
 1638 009c 70D8     		bhi	.L150
 1639              	.L132:
 905:Drivers/STM32L0xx_HAL_Driver/Src/stm32l0xx_hal_rcc.c ****       {
 1640              		.loc 1 905 0
 1641 009e 3E4B     		ldr	r3, .L157+4
 1642 00a0 DB68     		ldr	r3, [r3, #12]
 1643 00a2 0C22     		mov	r2, #12
 1644 00a4 1340     		and	r3, r2
 1645 00a6 082B     		cmp	r3, #8
 1646 00a8 F3D1     		bne	.L134
 1647 00aa 2AE0     		b	.L127
 1648              	.LVL150:
 1649              	.L155:
 913:Drivers/STM32L0xx_HAL_Driver/Src/stm32l0xx_hal_rcc.c ****     {
 1650              		.loc 1 913 0
 1651 00ac 032B     		cmp	r3, #3
 1652 00ae 0DD1     		bne	.L156
 1653 00b0 05E0     		b	.L135
 1654              	.LVL151:
 1655              	.L137:
 917:Drivers/STM32L0xx_HAL_Driver/Src/stm32l0xx_hal_rcc.c ****         {
 1656              		.loc 1 917 0
 1657 00b2 FFF7FEFF 		bl	HAL_GetTick
 1658              	.LVL152:
 1659 00b6 801B     		sub	r0, r0, r6
 1660 00b8 384B     		ldr	r3, .L157+8
 1661 00ba 9842     		cmp	r0, r3
 1662 00bc 62D8     		bhi	.L151
 1663              	.L135:
 915:Drivers/STM32L0xx_HAL_Driver/Src/stm32l0xx_hal_rcc.c ****       {
 1664              		.loc 1 915 0
 1665 00be 364B     		ldr	r3, .L157+4
 1666 00c0 DB68     		ldr	r3, [r3, #12]
 1667 00c2 0C22     		mov	r2, #12
 1668 00c4 1340     		and	r3, r2
 1669 00c6 0C2B     		cmp	r3, #12
 1670 00c8 F3D1     		bne	.L137
 1671 00ca 1AE0     		b	.L127
 1672              	.LVL153:
 1673              	.L156:
 923:Drivers/STM32L0xx_HAL_Driver/Src/stm32l0xx_hal_rcc.c ****     {
ARM GAS  /tmp/ccWNGGuS.s 			page 60


 1674              		.loc 1 923 0
 1675 00cc 012B     		cmp	r3, #1
 1676 00ce 13D1     		bne	.L139
 1677 00d0 05E0     		b	.L138
 1678              	.LVL154:
 1679              	.L140:
 927:Drivers/STM32L0xx_HAL_Driver/Src/stm32l0xx_hal_rcc.c ****         {
 1680              		.loc 1 927 0
 1681 00d2 FFF7FEFF 		bl	HAL_GetTick
 1682              	.LVL155:
 1683 00d6 801B     		sub	r0, r0, r6
 1684 00d8 304B     		ldr	r3, .L157+8
 1685 00da 9842     		cmp	r0, r3
 1686 00dc 54D8     		bhi	.L152
 1687              	.L138:
 925:Drivers/STM32L0xx_HAL_Driver/Src/stm32l0xx_hal_rcc.c ****       {
 1688              		.loc 1 925 0
 1689 00de 2E4B     		ldr	r3, .L157+4
 1690 00e0 DB68     		ldr	r3, [r3, #12]
 1691 00e2 0C22     		mov	r2, #12
 1692 00e4 1340     		and	r3, r2
 1693 00e6 042B     		cmp	r3, #4
 1694 00e8 F3D1     		bne	.L140
 1695 00ea 0AE0     		b	.L127
 1696              	.L141:
 937:Drivers/STM32L0xx_HAL_Driver/Src/stm32l0xx_hal_rcc.c ****         {
 1697              		.loc 1 937 0
 1698 00ec FFF7FEFF 		bl	HAL_GetTick
 1699              	.LVL156:
 1700 00f0 801B     		sub	r0, r0, r6
 1701 00f2 2A4B     		ldr	r3, .L157+8
 1702 00f4 9842     		cmp	r0, r3
 1703 00f6 49D8     		bhi	.L153
 1704              	.L139:
 935:Drivers/STM32L0xx_HAL_Driver/Src/stm32l0xx_hal_rcc.c ****       {
 1705              		.loc 1 935 0
 1706 00f8 274B     		ldr	r3, .L157+4
 1707 00fa DB68     		ldr	r3, [r3, #12]
 1708 00fc 0C22     		mov	r2, #12
 1709 00fe 1A42     		tst	r2, r3
 1710 0100 F4D1     		bne	.L141
 1711              	.LVL157:
 1712              	.L127:
 945:Drivers/STM32L0xx_HAL_Driver/Src/stm32l0xx_hal_rcc.c ****   {    
 1713              		.loc 1 945 0
 1714 0102 244B     		ldr	r3, .L157
 1715 0104 1B68     		ldr	r3, [r3]
 1716 0106 0122     		mov	r2, #1
 1717 0108 1340     		and	r3, r2
 1718 010a AB42     		cmp	r3, r5
 1719 010c 09D9     		bls	.L142
 948:Drivers/STM32L0xx_HAL_Driver/Src/stm32l0xx_hal_rcc.c ****     
 1720              		.loc 1 948 0
 1721 010e 214A     		ldr	r2, .L157
 1722 0110 1368     		ldr	r3, [r2]
 1723 0112 0121     		mov	r1, #1
 1724 0114 8B43     		bic	r3, r1
ARM GAS  /tmp/ccWNGGuS.s 			page 61


 1725 0116 2B43     		orr	r3, r5
 1726 0118 1360     		str	r3, [r2]
 952:Drivers/STM32L0xx_HAL_Driver/Src/stm32l0xx_hal_rcc.c ****     {
 1727              		.loc 1 952 0
 1728 011a 1368     		ldr	r3, [r2]
 1729 011c 0B40     		and	r3, r1
 1730 011e AB42     		cmp	r3, r5
 1731 0120 36D1     		bne	.L154
 1732              	.L142:
 959:Drivers/STM32L0xx_HAL_Driver/Src/stm32l0xx_hal_rcc.c ****   {
 1733              		.loc 1 959 0
 1734 0122 2368     		ldr	r3, [r4]
 1735 0124 5B07     		lsl	r3, r3, #29
 1736 0126 06D5     		bpl	.L143
 962:Drivers/STM32L0xx_HAL_Driver/Src/stm32l0xx_hal_rcc.c ****   }
 1737              		.loc 1 962 0
 1738 0128 1B4A     		ldr	r2, .L157+4
 1739 012a D168     		ldr	r1, [r2, #12]
 1740 012c 1C4B     		ldr	r3, .L157+12
 1741 012e 0B40     		and	r3, r1
 1742 0130 E168     		ldr	r1, [r4, #12]
 1743 0132 0B43     		orr	r3, r1
 1744 0134 D360     		str	r3, [r2, #12]
 1745              	.L143:
 966:Drivers/STM32L0xx_HAL_Driver/Src/stm32l0xx_hal_rcc.c ****   {
 1746              		.loc 1 966 0
 1747 0136 2368     		ldr	r3, [r4]
 1748 0138 1B07     		lsl	r3, r3, #28
 1749 013a 07D5     		bpl	.L144
 969:Drivers/STM32L0xx_HAL_Driver/Src/stm32l0xx_hal_rcc.c ****   }
 1750              		.loc 1 969 0
 1751 013c 1649     		ldr	r1, .L157+4
 1752 013e CA68     		ldr	r2, [r1, #12]
 1753 0140 184B     		ldr	r3, .L157+16
 1754 0142 1340     		and	r3, r2
 1755 0144 2269     		ldr	r2, [r4, #16]
 1756 0146 D200     		lsl	r2, r2, #3
 1757 0148 1343     		orr	r3, r2
 1758 014a CB60     		str	r3, [r1, #12]
 1759              	.L144:
 973:Drivers/STM32L0xx_HAL_Driver/Src/stm32l0xx_hal_rcc.c **** 
 1760              		.loc 1 973 0
 1761 014c FFF7FEFF 		bl	HAL_RCC_GetSysClockFreq
 1762              	.LVL158:
 1763 0150 114B     		ldr	r3, .L157+4
 1764 0152 DB68     		ldr	r3, [r3, #12]
 1765 0154 1B06     		lsl	r3, r3, #24
 1766 0156 1B0F     		lsr	r3, r3, #28
 1767 0158 134A     		ldr	r2, .L157+20
 1768 015a D35C     		ldrb	r3, [r2, r3]
 1769 015c D840     		lsr	r0, r0, r3
 1770 015e 134B     		ldr	r3, .L157+24
 1771 0160 1860     		str	r0, [r3]
 976:Drivers/STM32L0xx_HAL_Driver/Src/stm32l0xx_hal_rcc.c ****   
 1772              		.loc 1 976 0
 1773 0162 0020     		mov	r0, #0
 1774 0164 FFF7FEFF 		bl	HAL_InitTick
ARM GAS  /tmp/ccWNGGuS.s 			page 62


 1775              	.LVL159:
 978:Drivers/STM32L0xx_HAL_Driver/Src/stm32l0xx_hal_rcc.c **** }
 1776              		.loc 1 978 0
 1777 0168 0020     		mov	r0, #0
 1778 016a 12E0     		b	.L125
 1779              	.LVL160:
 1780              	.L145:
 846:Drivers/STM32L0xx_HAL_Driver/Src/stm32l0xx_hal_rcc.c ****     }
 1781              		.loc 1 846 0
 1782 016c 0120     		mov	r0, #1
 1783              	.LVL161:
 1784 016e 10E0     		b	.L125
 1785              	.LVL162:
 1786              	.L146:
 868:Drivers/STM32L0xx_HAL_Driver/Src/stm32l0xx_hal_rcc.c ****       }
 1787              		.loc 1 868 0
 1788 0170 0120     		mov	r0, #1
 1789              	.LVL163:
 1790 0172 0EE0     		b	.L125
 1791              	.LVL164:
 1792              	.L147:
 877:Drivers/STM32L0xx_HAL_Driver/Src/stm32l0xx_hal_rcc.c ****       }
 1793              		.loc 1 877 0
 1794 0174 0120     		mov	r0, #1
 1795              	.LVL165:
 1796 0176 0CE0     		b	.L125
 1797              	.LVL166:
 1798              	.L148:
 886:Drivers/STM32L0xx_HAL_Driver/Src/stm32l0xx_hal_rcc.c ****       }
 1799              		.loc 1 886 0
 1800 0178 0120     		mov	r0, #1
 1801              	.LVL167:
 1802 017a 0AE0     		b	.L125
 1803              	.LVL168:
 1804              	.L149:
 895:Drivers/STM32L0xx_HAL_Driver/Src/stm32l0xx_hal_rcc.c ****       }
 1805              		.loc 1 895 0
 1806 017c 0120     		mov	r0, #1
 1807              	.LVL169:
 1808 017e 08E0     		b	.L125
 1809              	.LVL170:
 1810              	.L150:
 909:Drivers/STM32L0xx_HAL_Driver/Src/stm32l0xx_hal_rcc.c ****         }
 1811              		.loc 1 909 0
 1812 0180 0320     		mov	r0, #3
 1813 0182 06E0     		b	.L125
 1814              	.L151:
 919:Drivers/STM32L0xx_HAL_Driver/Src/stm32l0xx_hal_rcc.c ****         }
 1815              		.loc 1 919 0
 1816 0184 0320     		mov	r0, #3
 1817 0186 04E0     		b	.L125
 1818              	.L152:
 929:Drivers/STM32L0xx_HAL_Driver/Src/stm32l0xx_hal_rcc.c ****         }
 1819              		.loc 1 929 0
 1820 0188 0320     		mov	r0, #3
 1821 018a 02E0     		b	.L125
 1822              	.L153:
ARM GAS  /tmp/ccWNGGuS.s 			page 63


 939:Drivers/STM32L0xx_HAL_Driver/Src/stm32l0xx_hal_rcc.c ****         }
 1823              		.loc 1 939 0
 1824 018c 0320     		mov	r0, #3
 1825 018e 00E0     		b	.L125
 1826              	.LVL171:
 1827              	.L154:
 954:Drivers/STM32L0xx_HAL_Driver/Src/stm32l0xx_hal_rcc.c ****     }
 1828              		.loc 1 954 0
 1829 0190 0120     		mov	r0, #1
 1830              	.LVL172:
 1831              	.L125:
 979:Drivers/STM32L0xx_HAL_Driver/Src/stm32l0xx_hal_rcc.c **** 
 1832              		.loc 1 979 0
 1833              		@ sp needed
 1834 0192 70BD     		pop	{r4, r5, r6, pc}
 1835              	.L158:
 1836              		.align	2
 1837              	.L157:
 1838 0194 00200240 		.word	1073881088
 1839 0198 00100240 		.word	1073876992
 1840 019c 88130000 		.word	5000
 1841 01a0 FFF8FFFF 		.word	-1793
 1842 01a4 FFC7FFFF 		.word	-14337
 1843 01a8 00000000 		.word	AHBPrescTable
 1844 01ac 00000000 		.word	SystemCoreClock
 1845              		.cfi_endproc
 1846              	.LFE38:
 1848              		.section	.text.HAL_RCC_GetHCLKFreq,"ax",%progbits
 1849              		.align	2
 1850              		.global	HAL_RCC_GetHCLKFreq
 1851              		.code	16
 1852              		.thumb_func
 1854              	HAL_RCC_GetHCLKFreq:
 1855              	.LFB42:
1225:Drivers/STM32L0xx_HAL_Driver/Src/stm32l0xx_hal_rcc.c ****   return SystemCoreClock;
 1856              		.loc 1 1225 0
 1857              		.cfi_startproc
1226:Drivers/STM32L0xx_HAL_Driver/Src/stm32l0xx_hal_rcc.c **** }
 1858              		.loc 1 1226 0
 1859 0000 014B     		ldr	r3, .L160
 1860 0002 1868     		ldr	r0, [r3]
1227:Drivers/STM32L0xx_HAL_Driver/Src/stm32l0xx_hal_rcc.c **** 
 1861              		.loc 1 1227 0
 1862              		@ sp needed
 1863 0004 7047     		bx	lr
 1864              	.L161:
 1865 0006 C046     		.align	2
 1866              	.L160:
 1867 0008 00000000 		.word	SystemCoreClock
 1868              		.cfi_endproc
 1869              	.LFE42:
 1871              		.section	.text.HAL_RCC_GetPCLK1Freq,"ax",%progbits
 1872              		.align	2
 1873              		.global	HAL_RCC_GetPCLK1Freq
 1874              		.code	16
 1875              		.thumb_func
 1877              	HAL_RCC_GetPCLK1Freq:
ARM GAS  /tmp/ccWNGGuS.s 			page 64


 1878              	.LFB43:
1236:Drivers/STM32L0xx_HAL_Driver/Src/stm32l0xx_hal_rcc.c ****   /* Get HCLK source and Compute PCLK1 frequency ---------------------------*/
 1879              		.loc 1 1236 0
 1880              		.cfi_startproc
 1881 0000 08B5     		push	{r3, lr}
 1882              	.LCFI8:
 1883              		.cfi_def_cfa_offset 8
 1884              		.cfi_offset 3, -8
 1885              		.cfi_offset 14, -4
1238:Drivers/STM32L0xx_HAL_Driver/Src/stm32l0xx_hal_rcc.c **** }    
 1886              		.loc 1 1238 0
 1887 0002 FFF7FEFF 		bl	HAL_RCC_GetHCLKFreq
 1888              	.LVL173:
 1889 0006 044B     		ldr	r3, .L163
 1890 0008 DB68     		ldr	r3, [r3, #12]
 1891 000a 5B05     		lsl	r3, r3, #21
 1892 000c 5B0F     		lsr	r3, r3, #29
 1893 000e 034A     		ldr	r2, .L163+4
 1894 0010 D35C     		ldrb	r3, [r2, r3]
 1895 0012 D840     		lsr	r0, r0, r3
1239:Drivers/STM32L0xx_HAL_Driver/Src/stm32l0xx_hal_rcc.c **** 
 1896              		.loc 1 1239 0
 1897              		@ sp needed
 1898 0014 08BD     		pop	{r3, pc}
 1899              	.L164:
 1900 0016 C046     		.align	2
 1901              	.L163:
 1902 0018 00100240 		.word	1073876992
 1903 001c 00000000 		.word	APBPrescTable
 1904              		.cfi_endproc
 1905              	.LFE43:
 1907              		.section	.text.HAL_RCC_GetPCLK2Freq,"ax",%progbits
 1908              		.align	2
 1909              		.global	HAL_RCC_GetPCLK2Freq
 1910              		.code	16
 1911              		.thumb_func
 1913              	HAL_RCC_GetPCLK2Freq:
 1914              	.LFB44:
1248:Drivers/STM32L0xx_HAL_Driver/Src/stm32l0xx_hal_rcc.c ****   /* Get HCLK source and Compute PCLK2 frequency ---------------------------*/
 1915              		.loc 1 1248 0
 1916              		.cfi_startproc
 1917 0000 08B5     		push	{r3, lr}
 1918              	.LCFI9:
 1919              		.cfi_def_cfa_offset 8
 1920              		.cfi_offset 3, -8
 1921              		.cfi_offset 14, -4
1250:Drivers/STM32L0xx_HAL_Driver/Src/stm32l0xx_hal_rcc.c **** } 
 1922              		.loc 1 1250 0
 1923 0002 FFF7FEFF 		bl	HAL_RCC_GetHCLKFreq
 1924              	.LVL174:
 1925 0006 044B     		ldr	r3, .L166
 1926 0008 DB68     		ldr	r3, [r3, #12]
 1927 000a 9B04     		lsl	r3, r3, #18
 1928 000c 5B0F     		lsr	r3, r3, #29
 1929 000e 034A     		ldr	r2, .L166+4
 1930 0010 D35C     		ldrb	r3, [r2, r3]
 1931 0012 D840     		lsr	r0, r0, r3
ARM GAS  /tmp/ccWNGGuS.s 			page 65


1251:Drivers/STM32L0xx_HAL_Driver/Src/stm32l0xx_hal_rcc.c **** 
 1932              		.loc 1 1251 0
 1933              		@ sp needed
 1934 0014 08BD     		pop	{r3, pc}
 1935              	.L167:
 1936 0016 C046     		.align	2
 1937              	.L166:
 1938 0018 00100240 		.word	1073876992
 1939 001c 00000000 		.word	APBPrescTable
 1940              		.cfi_endproc
 1941              	.LFE44:
 1943              		.section	.text.HAL_RCC_GetOscConfig,"ax",%progbits
 1944              		.align	2
 1945              		.global	HAL_RCC_GetOscConfig
 1946              		.code	16
 1947              		.thumb_func
 1949              	HAL_RCC_GetOscConfig:
 1950              	.LFB45:
1261:Drivers/STM32L0xx_HAL_Driver/Src/stm32l0xx_hal_rcc.c ****   /* Check the parameters */
 1951              		.loc 1 1261 0
 1952              		.cfi_startproc
 1953              	.LVL175:
1266:Drivers/STM32L0xx_HAL_Driver/Src/stm32l0xx_hal_rcc.c ****                   | RCC_OSCILLATORTYPE_LSE | RCC_OSCILLATORTYPE_LSI | RCC_OSCILLATORTYPE_MSI;
 1954              		.loc 1 1266 0
 1955 0000 1F23     		mov	r3, #31
 1956 0002 0360     		str	r3, [r0]
1274:Drivers/STM32L0xx_HAL_Driver/Src/stm32l0xx_hal_rcc.c ****   {
 1957              		.loc 1 1274 0
 1958 0004 324B     		ldr	r3, .L183
 1959 0006 1B68     		ldr	r3, [r3]
 1960 0008 5B03     		lsl	r3, r3, #13
 1961 000a 03D5     		bpl	.L169
1276:Drivers/STM32L0xx_HAL_Driver/Src/stm32l0xx_hal_rcc.c ****   }
 1962              		.loc 1 1276 0
 1963 000c A023     		mov	r3, #160
 1964 000e DB02     		lsl	r3, r3, #11
 1965 0010 4360     		str	r3, [r0, #4]
 1966 0012 09E0     		b	.L170
 1967              	.L169:
1278:Drivers/STM32L0xx_HAL_Driver/Src/stm32l0xx_hal_rcc.c ****   {
 1968              		.loc 1 1278 0
 1969 0014 2E4B     		ldr	r3, .L183
 1970 0016 1B68     		ldr	r3, [r3]
 1971 0018 DB03     		lsl	r3, r3, #15
 1972 001a 03D5     		bpl	.L171
1280:Drivers/STM32L0xx_HAL_Driver/Src/stm32l0xx_hal_rcc.c ****   }
 1973              		.loc 1 1280 0
 1974 001c 8023     		mov	r3, #128
 1975 001e 5B02     		lsl	r3, r3, #9
 1976 0020 4360     		str	r3, [r0, #4]
 1977 0022 01E0     		b	.L170
 1978              	.L171:
1284:Drivers/STM32L0xx_HAL_Driver/Src/stm32l0xx_hal_rcc.c ****   }
 1979              		.loc 1 1284 0
 1980 0024 0023     		mov	r3, #0
 1981 0026 4360     		str	r3, [r0, #4]
 1982              	.L170:
ARM GAS  /tmp/ccWNGGuS.s 			page 66


1288:Drivers/STM32L0xx_HAL_Driver/Src/stm32l0xx_hal_rcc.c ****   {
 1983              		.loc 1 1288 0
 1984 0028 294B     		ldr	r3, .L183
 1985 002a 1B68     		ldr	r3, [r3]
 1986 002c DB07     		lsl	r3, r3, #31
 1987 002e 02D5     		bpl	.L172
1290:Drivers/STM32L0xx_HAL_Driver/Src/stm32l0xx_hal_rcc.c ****   }
 1988              		.loc 1 1290 0
 1989 0030 0123     		mov	r3, #1
 1990 0032 C360     		str	r3, [r0, #12]
 1991 0034 01E0     		b	.L173
 1992              	.L172:
1294:Drivers/STM32L0xx_HAL_Driver/Src/stm32l0xx_hal_rcc.c ****   }
 1993              		.loc 1 1294 0
 1994 0036 0023     		mov	r3, #0
 1995 0038 C360     		str	r3, [r0, #12]
 1996              	.L173:
1297:Drivers/STM32L0xx_HAL_Driver/Src/stm32l0xx_hal_rcc.c ****   
 1997              		.loc 1 1297 0
 1998 003a 254A     		ldr	r2, .L183
 1999 003c 5368     		ldr	r3, [r2, #4]
 2000 003e DB04     		lsl	r3, r3, #19
 2001 0040 DB0E     		lsr	r3, r3, #27
 2002 0042 0361     		str	r3, [r0, #16]
1300:Drivers/STM32L0xx_HAL_Driver/Src/stm32l0xx_hal_rcc.c ****   {
 2003              		.loc 1 1300 0
 2004 0044 1368     		ldr	r3, [r2]
 2005 0046 DB05     		lsl	r3, r3, #23
 2006 0048 02D5     		bpl	.L174
1302:Drivers/STM32L0xx_HAL_Driver/Src/stm32l0xx_hal_rcc.c ****   }
 2007              		.loc 1 1302 0
 2008 004a 0123     		mov	r3, #1
 2009 004c 8361     		str	r3, [r0, #24]
 2010 004e 01E0     		b	.L175
 2011              	.L174:
1306:Drivers/STM32L0xx_HAL_Driver/Src/stm32l0xx_hal_rcc.c ****   }
 2012              		.loc 1 1306 0
 2013 0050 0023     		mov	r3, #0
 2014 0052 8361     		str	r3, [r0, #24]
 2015              	.L175:
1309:Drivers/STM32L0xx_HAL_Driver/Src/stm32l0xx_hal_rcc.c ****   RCC_OscInitStruct->MSIClockRange = (uint32_t)((RCC->ICSCR & RCC_ICSCR_MSIRANGE));
 2016              		.loc 1 1309 0
 2017 0054 1E4B     		ldr	r3, .L183
 2018 0056 5A68     		ldr	r2, [r3, #4]
 2019 0058 120E     		lsr	r2, r2, #24
 2020 005a C261     		str	r2, [r0, #28]
1310:Drivers/STM32L0xx_HAL_Driver/Src/stm32l0xx_hal_rcc.c ****   
 2021              		.loc 1 1310 0
 2022 005c 5968     		ldr	r1, [r3, #4]
 2023 005e E022     		mov	r2, #224
 2024 0060 1202     		lsl	r2, r2, #8
 2025 0062 0A40     		and	r2, r1
 2026 0064 0262     		str	r2, [r0, #32]
1313:Drivers/STM32L0xx_HAL_Driver/Src/stm32l0xx_hal_rcc.c ****   {
 2027              		.loc 1 1313 0
 2028 0066 1B6D     		ldr	r3, [r3, #80]
 2029 0068 5B05     		lsl	r3, r3, #21
ARM GAS  /tmp/ccWNGGuS.s 			page 67


 2030 006a 03D5     		bpl	.L176
1315:Drivers/STM32L0xx_HAL_Driver/Src/stm32l0xx_hal_rcc.c ****   }
 2031              		.loc 1 1315 0
 2032 006c A023     		mov	r3, #160
 2033 006e DB00     		lsl	r3, r3, #3
 2034 0070 8360     		str	r3, [r0, #8]
 2035 0072 09E0     		b	.L177
 2036              	.L176:
1317:Drivers/STM32L0xx_HAL_Driver/Src/stm32l0xx_hal_rcc.c ****   {
 2037              		.loc 1 1317 0
 2038 0074 164B     		ldr	r3, .L183
 2039 0076 1B6D     		ldr	r3, [r3, #80]
 2040 0078 DB05     		lsl	r3, r3, #23
 2041 007a 03D5     		bpl	.L178
1319:Drivers/STM32L0xx_HAL_Driver/Src/stm32l0xx_hal_rcc.c ****   }
 2042              		.loc 1 1319 0
 2043 007c 8023     		mov	r3, #128
 2044 007e 5B00     		lsl	r3, r3, #1
 2045 0080 8360     		str	r3, [r0, #8]
 2046 0082 01E0     		b	.L177
 2047              	.L178:
1323:Drivers/STM32L0xx_HAL_Driver/Src/stm32l0xx_hal_rcc.c ****   }
 2048              		.loc 1 1323 0
 2049 0084 0023     		mov	r3, #0
 2050 0086 8360     		str	r3, [r0, #8]
 2051              	.L177:
1327:Drivers/STM32L0xx_HAL_Driver/Src/stm32l0xx_hal_rcc.c ****   {
 2052              		.loc 1 1327 0
 2053 0088 114B     		ldr	r3, .L183
 2054 008a 1B6D     		ldr	r3, [r3, #80]
 2055 008c DB07     		lsl	r3, r3, #31
 2056 008e 02D5     		bpl	.L179
1329:Drivers/STM32L0xx_HAL_Driver/Src/stm32l0xx_hal_rcc.c ****   }
 2057              		.loc 1 1329 0
 2058 0090 0123     		mov	r3, #1
 2059 0092 4361     		str	r3, [r0, #20]
 2060 0094 01E0     		b	.L180
 2061              	.L179:
1333:Drivers/STM32L0xx_HAL_Driver/Src/stm32l0xx_hal_rcc.c ****   }
 2062              		.loc 1 1333 0
 2063 0096 0023     		mov	r3, #0
 2064 0098 4361     		str	r3, [r0, #20]
 2065              	.L180:
1342:Drivers/STM32L0xx_HAL_Driver/Src/stm32l0xx_hal_rcc.c ****   {
 2066              		.loc 1 1342 0
 2067 009a 0D4B     		ldr	r3, .L183
 2068 009c 1B68     		ldr	r3, [r3]
 2069 009e DB01     		lsl	r3, r3, #7
 2070 00a0 02D5     		bpl	.L181
1344:Drivers/STM32L0xx_HAL_Driver/Src/stm32l0xx_hal_rcc.c ****   }
 2071              		.loc 1 1344 0
 2072 00a2 0223     		mov	r3, #2
 2073 00a4 4362     		str	r3, [r0, #36]
 2074 00a6 01E0     		b	.L182
 2075              	.L181:
1348:Drivers/STM32L0xx_HAL_Driver/Src/stm32l0xx_hal_rcc.c ****   }
 2076              		.loc 1 1348 0
ARM GAS  /tmp/ccWNGGuS.s 			page 68


 2077 00a8 0123     		mov	r3, #1
 2078 00aa 4362     		str	r3, [r0, #36]
 2079              	.L182:
1350:Drivers/STM32L0xx_HAL_Driver/Src/stm32l0xx_hal_rcc.c ****   RCC_OscInitStruct->PLL.PLLMUL = (uint32_t)(RCC->CFGR & RCC_CFGR_PLLMUL);
 2080              		.loc 1 1350 0
 2081 00ac 084B     		ldr	r3, .L183
 2082 00ae D968     		ldr	r1, [r3, #12]
 2083 00b0 8022     		mov	r2, #128
 2084 00b2 5202     		lsl	r2, r2, #9
 2085 00b4 0A40     		and	r2, r1
 2086 00b6 8262     		str	r2, [r0, #40]
1351:Drivers/STM32L0xx_HAL_Driver/Src/stm32l0xx_hal_rcc.c ****   RCC_OscInitStruct->PLL.PLLDIV = (uint32_t)(RCC->CFGR & RCC_CFGR_PLLDIV);
 2087              		.loc 1 1351 0
 2088 00b8 D968     		ldr	r1, [r3, #12]
 2089 00ba F022     		mov	r2, #240
 2090 00bc 9203     		lsl	r2, r2, #14
 2091 00be 0A40     		and	r2, r1
 2092 00c0 C262     		str	r2, [r0, #44]
1352:Drivers/STM32L0xx_HAL_Driver/Src/stm32l0xx_hal_rcc.c **** }
 2093              		.loc 1 1352 0
 2094 00c2 DA68     		ldr	r2, [r3, #12]
 2095 00c4 C023     		mov	r3, #192
 2096 00c6 1B04     		lsl	r3, r3, #16
 2097 00c8 1340     		and	r3, r2
 2098 00ca 0363     		str	r3, [r0, #48]
1353:Drivers/STM32L0xx_HAL_Driver/Src/stm32l0xx_hal_rcc.c **** 
 2099              		.loc 1 1353 0
 2100              		@ sp needed
 2101 00cc 7047     		bx	lr
 2102              	.L184:
 2103 00ce C046     		.align	2
 2104              	.L183:
 2105 00d0 00100240 		.word	1073876992
 2106              		.cfi_endproc
 2107              	.LFE45:
 2109              		.section	.text.HAL_RCC_GetClockConfig,"ax",%progbits
 2110              		.align	2
 2111              		.global	HAL_RCC_GetClockConfig
 2112              		.code	16
 2113              		.thumb_func
 2115              	HAL_RCC_GetClockConfig:
 2116              	.LFB46:
1364:Drivers/STM32L0xx_HAL_Driver/Src/stm32l0xx_hal_rcc.c ****   /* Check the parameters */
 2117              		.loc 1 1364 0
 2118              		.cfi_startproc
 2119              	.LVL176:
 2120 0000 10B5     		push	{r4, lr}
 2121              	.LCFI10:
 2122              		.cfi_def_cfa_offset 8
 2123              		.cfi_offset 4, -8
 2124              		.cfi_offset 14, -4
1370:Drivers/STM32L0xx_HAL_Driver/Src/stm32l0xx_hal_rcc.c ****   
 2125              		.loc 1 1370 0
 2126 0002 0F23     		mov	r3, #15
 2127 0004 0360     		str	r3, [r0]
1373:Drivers/STM32L0xx_HAL_Driver/Src/stm32l0xx_hal_rcc.c ****   
 2128              		.loc 1 1373 0
ARM GAS  /tmp/ccWNGGuS.s 			page 69


 2129 0006 0D4B     		ldr	r3, .L186
 2130 0008 DA68     		ldr	r2, [r3, #12]
 2131 000a 0324     		mov	r4, #3
 2132 000c 2240     		and	r2, r4
 2133 000e 4260     		str	r2, [r0, #4]
1376:Drivers/STM32L0xx_HAL_Driver/Src/stm32l0xx_hal_rcc.c ****   
 2134              		.loc 1 1376 0
 2135 0010 DA68     		ldr	r2, [r3, #12]
 2136 0012 ED34     		add	r4, r4, #237
 2137 0014 2240     		and	r2, r4
 2138 0016 8260     		str	r2, [r0, #8]
1379:Drivers/STM32L0xx_HAL_Driver/Src/stm32l0xx_hal_rcc.c ****   
 2139              		.loc 1 1379 0
 2140 0018 DC68     		ldr	r4, [r3, #12]
 2141 001a E022     		mov	r2, #224
 2142 001c D200     		lsl	r2, r2, #3
 2143 001e 2240     		and	r2, r4
 2144 0020 C260     		str	r2, [r0, #12]
1382:Drivers/STM32L0xx_HAL_Driver/Src/stm32l0xx_hal_rcc.c ****   
 2145              		.loc 1 1382 0
 2146 0022 DA68     		ldr	r2, [r3, #12]
 2147 0024 E023     		mov	r3, #224
 2148 0026 9B01     		lsl	r3, r3, #6
 2149 0028 1340     		and	r3, r2
 2150 002a DB08     		lsr	r3, r3, #3
 2151 002c 0361     		str	r3, [r0, #16]
1385:Drivers/STM32L0xx_HAL_Driver/Src/stm32l0xx_hal_rcc.c **** }
 2152              		.loc 1 1385 0
 2153 002e 044B     		ldr	r3, .L186+4
 2154 0030 1B68     		ldr	r3, [r3]
 2155 0032 0122     		mov	r2, #1
 2156 0034 1340     		and	r3, r2
 2157 0036 0B60     		str	r3, [r1]
1386:Drivers/STM32L0xx_HAL_Driver/Src/stm32l0xx_hal_rcc.c **** 
 2158              		.loc 1 1386 0
 2159              		@ sp needed
 2160 0038 10BD     		pop	{r4, pc}
 2161              	.L187:
 2162 003a C046     		.align	2
 2163              	.L186:
 2164 003c 00100240 		.word	1073876992
 2165 0040 00200240 		.word	1073881088
 2166              		.cfi_endproc
 2167              	.LFE46:
 2169              		.section	.text.HAL_RCC_CSSCallback,"ax",%progbits
 2170              		.align	2
 2171              		.weak	HAL_RCC_CSSCallback
 2172              		.code	16
 2173              		.thumb_func
 2175              	HAL_RCC_CSSCallback:
 2176              	.LFB48:
1412:Drivers/STM32L0xx_HAL_Driver/Src/stm32l0xx_hal_rcc.c ****   /* NOTE : This function Should not be modified, when the callback is needed,
 2177              		.loc 1 1412 0
 2178              		.cfi_startproc
1416:Drivers/STM32L0xx_HAL_Driver/Src/stm32l0xx_hal_rcc.c **** 
 2179              		.loc 1 1416 0
 2180              		@ sp needed
ARM GAS  /tmp/ccWNGGuS.s 			page 70


 2181 0000 7047     		bx	lr
 2182              		.cfi_endproc
 2183              	.LFE48:
 2185 0002 C046     		.section	.text.HAL_RCC_NMI_IRQHandler,"ax",%progbits
 2186              		.align	2
 2187              		.global	HAL_RCC_NMI_IRQHandler
 2188              		.code	16
 2189              		.thumb_func
 2191              	HAL_RCC_NMI_IRQHandler:
 2192              	.LFB47:
1395:Drivers/STM32L0xx_HAL_Driver/Src/stm32l0xx_hal_rcc.c ****   /* Check RCC CSSF flag  */
 2193              		.loc 1 1395 0
 2194              		.cfi_startproc
 2195 0000 08B5     		push	{r3, lr}
 2196              	.LCFI11:
 2197              		.cfi_def_cfa_offset 8
 2198              		.cfi_offset 3, -8
 2199              		.cfi_offset 14, -4
1397:Drivers/STM32L0xx_HAL_Driver/Src/stm32l0xx_hal_rcc.c ****   {
 2200              		.loc 1 1397 0
 2201 0002 054B     		ldr	r3, .L191
 2202 0004 5B69     		ldr	r3, [r3, #20]
 2203 0006 DB05     		lsl	r3, r3, #23
 2204 0008 05D5     		bpl	.L189
1400:Drivers/STM32L0xx_HAL_Driver/Src/stm32l0xx_hal_rcc.c ****     
 2205              		.loc 1 1400 0
 2206 000a FFF7FEFF 		bl	HAL_RCC_CSSCallback
 2207              	.LVL177:
1403:Drivers/STM32L0xx_HAL_Driver/Src/stm32l0xx_hal_rcc.c ****   }
 2208              		.loc 1 1403 0
 2209 000e 8022     		mov	r2, #128
 2210 0010 5200     		lsl	r2, r2, #1
 2211 0012 014B     		ldr	r3, .L191
 2212 0014 9A61     		str	r2, [r3, #24]
 2213              	.L189:
1405:Drivers/STM32L0xx_HAL_Driver/Src/stm32l0xx_hal_rcc.c **** 
 2214              		.loc 1 1405 0
 2215              		@ sp needed
 2216 0016 08BD     		pop	{r3, pc}
 2217              	.L192:
 2218              		.align	2
 2219              	.L191:
 2220 0018 00100240 		.word	1073876992
 2221              		.cfi_endproc
 2222              	.LFE47:
 2224              		.text
 2225              	.Letext0:
 2226              		.file 2 "/usr/include/newlib/machine/_default_types.h"
 2227              		.file 3 "/usr/include/newlib/sys/_stdint.h"
 2228              		.file 4 "Drivers/CMSIS/Device/ST/STM32L0xx/Include/stm32l071xx.h"
 2229              		.file 5 "Drivers/CMSIS/Device/ST/STM32L0xx/Include/stm32l0xx.h"
 2230              		.file 6 "Drivers/STM32L0xx_HAL_Driver/Inc/stm32l0xx_hal_def.h"
 2231              		.file 7 "Drivers/STM32L0xx_HAL_Driver/Inc/stm32l0xx_hal_rcc.h"
 2232              		.file 8 "Drivers/STM32L0xx_HAL_Driver/Inc/stm32l0xx_hal_gpio.h"
 2233              		.file 9 "Drivers/CMSIS/Device/ST/STM32L0xx/Include/system_stm32l0xx.h"
 2234              		.file 10 "Drivers/STM32L0xx_HAL_Driver/Inc/stm32l0xx_hal.h"
ARM GAS  /tmp/ccWNGGuS.s 			page 71


DEFINED SYMBOLS
                            *ABS*:0000000000000000 stm32l0xx_hal_rcc.c
     /tmp/ccWNGGuS.s:18     .text.RCC_SetFlashLatencyFromMSIRange:0000000000000000 $t
     /tmp/ccWNGGuS.s:22     .text.RCC_SetFlashLatencyFromMSIRange:0000000000000000 RCC_SetFlashLatencyFromMSIRange
     /tmp/ccWNGGuS.s:134    .text.RCC_SetFlashLatencyFromMSIRange:0000000000000078 $d
     /tmp/ccWNGGuS.s:142    .text.HAL_RCC_DeInit:0000000000000000 $t
     /tmp/ccWNGGuS.s:147    .text.HAL_RCC_DeInit:0000000000000000 HAL_RCC_DeInit
     /tmp/ccWNGGuS.s:216    .text.HAL_RCC_DeInit:0000000000000060 $d
     /tmp/ccWNGGuS.s:227    .text.HAL_RCC_OscConfig:0000000000000000 $t
     /tmp/ccWNGGuS.s:232    .text.HAL_RCC_OscConfig:0000000000000000 HAL_RCC_OscConfig
     /tmp/ccWNGGuS.s:829    .text.HAL_RCC_OscConfig:0000000000000330 $d
     /tmp/ccWNGGuS.s:841    .text.HAL_RCC_OscConfig:0000000000000354 $t
     /tmp/ccWNGGuS.s:1202   .text.HAL_RCC_OscConfig:0000000000000510 $d
     /tmp/ccWNGGuS.s:1214   .text.HAL_RCC_MCOConfig:0000000000000000 $t
     /tmp/ccWNGGuS.s:1219   .text.HAL_RCC_MCOConfig:0000000000000000 HAL_RCC_MCOConfig
     /tmp/ccWNGGuS.s:1350   .text.HAL_RCC_MCOConfig:0000000000000098 $d
     /tmp/ccWNGGuS.s:1357   .text.HAL_RCC_EnableCSS:0000000000000000 $t
     /tmp/ccWNGGuS.s:1362   .text.HAL_RCC_EnableCSS:0000000000000000 HAL_RCC_EnableCSS
     /tmp/ccWNGGuS.s:1379   .text.HAL_RCC_EnableCSS:0000000000000010 $d
     /tmp/ccWNGGuS.s:1385   .text.HAL_RCC_GetSysClockFreq:0000000000000000 $t
     /tmp/ccWNGGuS.s:1390   .text.HAL_RCC_GetSysClockFreq:0000000000000000 HAL_RCC_GetSysClockFreq
     /tmp/ccWNGGuS.s:1504   .text.HAL_RCC_GetSysClockFreq:000000000000007c $d
     /tmp/ccWNGGuS.s:1513   .text.HAL_RCC_ClockConfig:0000000000000000 $t
     /tmp/ccWNGGuS.s:1518   .text.HAL_RCC_ClockConfig:0000000000000000 HAL_RCC_ClockConfig
     /tmp/ccWNGGuS.s:1838   .text.HAL_RCC_ClockConfig:0000000000000194 $d
     /tmp/ccWNGGuS.s:1849   .text.HAL_RCC_GetHCLKFreq:0000000000000000 $t
     /tmp/ccWNGGuS.s:1854   .text.HAL_RCC_GetHCLKFreq:0000000000000000 HAL_RCC_GetHCLKFreq
     /tmp/ccWNGGuS.s:1867   .text.HAL_RCC_GetHCLKFreq:0000000000000008 $d
     /tmp/ccWNGGuS.s:1872   .text.HAL_RCC_GetPCLK1Freq:0000000000000000 $t
     /tmp/ccWNGGuS.s:1877   .text.HAL_RCC_GetPCLK1Freq:0000000000000000 HAL_RCC_GetPCLK1Freq
     /tmp/ccWNGGuS.s:1902   .text.HAL_RCC_GetPCLK1Freq:0000000000000018 $d
     /tmp/ccWNGGuS.s:1908   .text.HAL_RCC_GetPCLK2Freq:0000000000000000 $t
     /tmp/ccWNGGuS.s:1913   .text.HAL_RCC_GetPCLK2Freq:0000000000000000 HAL_RCC_GetPCLK2Freq
     /tmp/ccWNGGuS.s:1938   .text.HAL_RCC_GetPCLK2Freq:0000000000000018 $d
     /tmp/ccWNGGuS.s:1944   .text.HAL_RCC_GetOscConfig:0000000000000000 $t
     /tmp/ccWNGGuS.s:1949   .text.HAL_RCC_GetOscConfig:0000000000000000 HAL_RCC_GetOscConfig
     /tmp/ccWNGGuS.s:2105   .text.HAL_RCC_GetOscConfig:00000000000000d0 $d
     /tmp/ccWNGGuS.s:2110   .text.HAL_RCC_GetClockConfig:0000000000000000 $t
     /tmp/ccWNGGuS.s:2115   .text.HAL_RCC_GetClockConfig:0000000000000000 HAL_RCC_GetClockConfig
     /tmp/ccWNGGuS.s:2164   .text.HAL_RCC_GetClockConfig:000000000000003c $d
     /tmp/ccWNGGuS.s:2170   .text.HAL_RCC_CSSCallback:0000000000000000 $t
     /tmp/ccWNGGuS.s:2175   .text.HAL_RCC_CSSCallback:0000000000000000 HAL_RCC_CSSCallback
     /tmp/ccWNGGuS.s:2186   .text.HAL_RCC_NMI_IRQHandler:0000000000000000 $t
     /tmp/ccWNGGuS.s:2191   .text.HAL_RCC_NMI_IRQHandler:0000000000000000 HAL_RCC_NMI_IRQHandler
     /tmp/ccWNGGuS.s:2220   .text.HAL_RCC_NMI_IRQHandler:0000000000000018 $d
                     .debug_frame:0000000000000010 $d

UNDEFINED SYMBOLS
SystemCoreClock
HAL_GetTick
HAL_InitTick
AHBPrescTable
HAL_GPIO_Init
__aeabi_uidiv
PLLMulTable
APBPrescTable
