ARM GAS  /tmp/ccKUZGIy.s 			page 1


   1              		.cpu cortex-m0plus
   2              		.fpu softvfp
   3              		.eabi_attribute 20, 1
   4              		.eabi_attribute 21, 1
   5              		.eabi_attribute 23, 3
   6              		.eabi_attribute 24, 1
   7              		.eabi_attribute 25, 1
   8              		.eabi_attribute 26, 1
   9              		.eabi_attribute 30, 1
  10              		.eabi_attribute 34, 0
  11              		.eabi_attribute 18, 4
  12              		.code	16
  13              		.file	"stm32l0xx_hal_msp.c"
  14              		.text
  15              	.Ltext0:
  16              		.cfi_sections	.debug_frame
  17              		.section	.text.HAL_MspInit,"ax",%progbits
  18              		.align	2
  19              		.global	HAL_MspInit
  20              		.code	16
  21              		.thumb_func
  23              	HAL_MspInit:
  24              	.LFB36:
  25              		.file 1 "Src/stm32l0xx_hal_msp.c"
   1:Src/stm32l0xx_hal_msp.c **** /**
   2:Src/stm32l0xx_hal_msp.c ****   ******************************************************************************
   3:Src/stm32l0xx_hal_msp.c ****   * File Name          : stm32l0xx_hal_msp.c
   4:Src/stm32l0xx_hal_msp.c ****   * Description        : This file provides code for the MSP Initialization 
   5:Src/stm32l0xx_hal_msp.c ****   *                      and de-Initialization codes.
   6:Src/stm32l0xx_hal_msp.c ****   ******************************************************************************
   7:Src/stm32l0xx_hal_msp.c ****   ** This notice applies to any and all portions of this file
   8:Src/stm32l0xx_hal_msp.c ****   * that are not between comment pairs USER CODE BEGIN and
   9:Src/stm32l0xx_hal_msp.c ****   * USER CODE END. Other portions of this file, whether 
  10:Src/stm32l0xx_hal_msp.c ****   * inserted by the user or by software development tools
  11:Src/stm32l0xx_hal_msp.c ****   * are owned by their respective copyright owners.
  12:Src/stm32l0xx_hal_msp.c ****   *
  13:Src/stm32l0xx_hal_msp.c ****   * COPYRIGHT(c) 2019 STMicroelectronics
  14:Src/stm32l0xx_hal_msp.c ****   *
  15:Src/stm32l0xx_hal_msp.c ****   * Redistribution and use in source and binary forms, with or without modification,
  16:Src/stm32l0xx_hal_msp.c ****   * are permitted provided that the following conditions are met:
  17:Src/stm32l0xx_hal_msp.c ****   *   1. Redistributions of source code must retain the above copyright notice,
  18:Src/stm32l0xx_hal_msp.c ****   *      this list of conditions and the following disclaimer.
  19:Src/stm32l0xx_hal_msp.c ****   *   2. Redistributions in binary form must reproduce the above copyright notice,
  20:Src/stm32l0xx_hal_msp.c ****   *      this list of conditions and the following disclaimer in the documentation
  21:Src/stm32l0xx_hal_msp.c ****   *      and/or other materials provided with the distribution.
  22:Src/stm32l0xx_hal_msp.c ****   *   3. Neither the name of STMicroelectronics nor the names of its contributors
  23:Src/stm32l0xx_hal_msp.c ****   *      may be used to endorse or promote products derived from this software
  24:Src/stm32l0xx_hal_msp.c ****   *      without specific prior written permission.
  25:Src/stm32l0xx_hal_msp.c ****   *
  26:Src/stm32l0xx_hal_msp.c ****   * THIS SOFTWARE IS PROVIDED BY THE COPYRIGHT HOLDERS AND CONTRIBUTORS "AS IS"
  27:Src/stm32l0xx_hal_msp.c ****   * AND ANY EXPRESS OR IMPLIED WARRANTIES, INCLUDING, BUT NOT LIMITED TO, THE
  28:Src/stm32l0xx_hal_msp.c ****   * IMPLIED WARRANTIES OF MERCHANTABILITY AND FITNESS FOR A PARTICULAR PURPOSE ARE
  29:Src/stm32l0xx_hal_msp.c ****   * DISCLAIMED. IN NO EVENT SHALL THE COPYRIGHT HOLDER OR CONTRIBUTORS BE LIABLE
  30:Src/stm32l0xx_hal_msp.c ****   * FOR ANY DIRECT, INDIRECT, INCIDENTAL, SPECIAL, EXEMPLARY, OR CONSEQUENTIAL
  31:Src/stm32l0xx_hal_msp.c ****   * DAMAGES (INCLUDING, BUT NOT LIMITED TO, PROCUREMENT OF SUBSTITUTE GOODS OR
  32:Src/stm32l0xx_hal_msp.c ****   * SERVICES; LOSS OF USE, DATA, OR PROFITS; OR BUSINESS INTERRUPTION) HOWEVER
  33:Src/stm32l0xx_hal_msp.c ****   * CAUSED AND ON ANY THEORY OF LIABILITY, WHETHER IN CONTRACT, STRICT LIABILITY,
ARM GAS  /tmp/ccKUZGIy.s 			page 2


  34:Src/stm32l0xx_hal_msp.c ****   * OR TORT (INCLUDING NEGLIGENCE OR OTHERWISE) ARISING IN ANY WAY OUT OF THE USE
  35:Src/stm32l0xx_hal_msp.c ****   * OF THIS SOFTWARE, EVEN IF ADVISED OF THE POSSIBILITY OF SUCH DAMAGE.
  36:Src/stm32l0xx_hal_msp.c ****   *
  37:Src/stm32l0xx_hal_msp.c ****   ******************************************************************************
  38:Src/stm32l0xx_hal_msp.c ****   */
  39:Src/stm32l0xx_hal_msp.c **** /* Includes ------------------------------------------------------------------*/
  40:Src/stm32l0xx_hal_msp.c **** #include "stm32l0xx_hal.h"
  41:Src/stm32l0xx_hal_msp.c **** 
  42:Src/stm32l0xx_hal_msp.c **** extern void _Error_Handler(char *, int);
  43:Src/stm32l0xx_hal_msp.c **** /* USER CODE BEGIN 0 */
  44:Src/stm32l0xx_hal_msp.c **** 
  45:Src/stm32l0xx_hal_msp.c **** /* USER CODE END 0 */
  46:Src/stm32l0xx_hal_msp.c **** /**
  47:Src/stm32l0xx_hal_msp.c ****   * Initializes the Global MSP.
  48:Src/stm32l0xx_hal_msp.c ****   */
  49:Src/stm32l0xx_hal_msp.c **** void HAL_MspInit(void)
  50:Src/stm32l0xx_hal_msp.c **** {
  26              		.loc 1 50 0
  27              		.cfi_startproc
  28 0000 08B5     		push	{r3, lr}
  29              	.LCFI0:
  30              		.cfi_def_cfa_offset 8
  31              		.cfi_offset 3, -8
  32              		.cfi_offset 14, -4
  51:Src/stm32l0xx_hal_msp.c ****   /* USER CODE BEGIN MspInit 0 */
  52:Src/stm32l0xx_hal_msp.c **** 
  53:Src/stm32l0xx_hal_msp.c ****   /* USER CODE END MspInit 0 */
  54:Src/stm32l0xx_hal_msp.c **** 
  55:Src/stm32l0xx_hal_msp.c ****   __HAL_RCC_SYSCFG_CLK_ENABLE();
  33              		.loc 1 55 0
  34 0002 0E4B     		ldr	r3, .L2
  35 0004 596B     		ldr	r1, [r3, #52]
  36 0006 0122     		mov	r2, #1
  37 0008 0A43     		orr	r2, r1
  38 000a 5A63     		str	r2, [r3, #52]
  56:Src/stm32l0xx_hal_msp.c ****   __HAL_RCC_PWR_CLK_ENABLE();
  39              		.loc 1 56 0
  40 000c 9A6B     		ldr	r2, [r3, #56]
  41 000e 8021     		mov	r1, #128
  42 0010 4905     		lsl	r1, r1, #21
  43 0012 0A43     		orr	r2, r1
  44 0014 9A63     		str	r2, [r3, #56]
  57:Src/stm32l0xx_hal_msp.c **** 
  58:Src/stm32l0xx_hal_msp.c ****   /* System interrupt init*/
  59:Src/stm32l0xx_hal_msp.c ****   /* SVC_IRQn interrupt configuration */
  60:Src/stm32l0xx_hal_msp.c ****   HAL_NVIC_SetPriority(SVC_IRQn, 0, 0);
  45              		.loc 1 60 0
  46 0016 0520     		mov	r0, #5
  47 0018 4042     		neg	r0, r0
  48 001a 0021     		mov	r1, #0
  49 001c 0022     		mov	r2, #0
  50 001e FFF7FEFF 		bl	HAL_NVIC_SetPriority
  51              	.LVL0:
  61:Src/stm32l0xx_hal_msp.c ****   /* PendSV_IRQn interrupt configuration */
  62:Src/stm32l0xx_hal_msp.c ****   HAL_NVIC_SetPriority(PendSV_IRQn, 0, 0);
  52              		.loc 1 62 0
  53 0022 0220     		mov	r0, #2
ARM GAS  /tmp/ccKUZGIy.s 			page 3


  54 0024 4042     		neg	r0, r0
  55 0026 0021     		mov	r1, #0
  56 0028 0022     		mov	r2, #0
  57 002a FFF7FEFF 		bl	HAL_NVIC_SetPriority
  58              	.LVL1:
  63:Src/stm32l0xx_hal_msp.c ****   /* SysTick_IRQn interrupt configuration */
  64:Src/stm32l0xx_hal_msp.c ****   HAL_NVIC_SetPriority(SysTick_IRQn, 0, 0);
  59              		.loc 1 64 0
  60 002e 0120     		mov	r0, #1
  61 0030 4042     		neg	r0, r0
  62 0032 0021     		mov	r1, #0
  63 0034 0022     		mov	r2, #0
  64 0036 FFF7FEFF 		bl	HAL_NVIC_SetPriority
  65              	.LVL2:
  65:Src/stm32l0xx_hal_msp.c **** 
  66:Src/stm32l0xx_hal_msp.c ****   /* USER CODE BEGIN MspInit 1 */
  67:Src/stm32l0xx_hal_msp.c **** 
  68:Src/stm32l0xx_hal_msp.c ****   /* USER CODE END MspInit 1 */
  69:Src/stm32l0xx_hal_msp.c **** }
  66              		.loc 1 69 0
  67              		@ sp needed
  68 003a 08BD     		pop	{r3, pc}
  69              	.L3:
  70              		.align	2
  71              	.L2:
  72 003c 00100240 		.word	1073876992
  73              		.cfi_endproc
  74              	.LFE36:
  76              		.text
  77              	.Letext0:
  78              		.file 2 "Drivers/CMSIS/Device/ST/STM32L0xx/Include/stm32l071xx.h"
  79              		.file 3 "/usr/include/newlib/machine/_default_types.h"
  80              		.file 4 "/usr/include/newlib/sys/_stdint.h"
  81              		.file 5 "Drivers/STM32L0xx_HAL_Driver/Inc/stm32l0xx_hal_cortex.h"
ARM GAS  /tmp/ccKUZGIy.s 			page 4


DEFINED SYMBOLS
                            *ABS*:0000000000000000 stm32l0xx_hal_msp.c
     /tmp/ccKUZGIy.s:18     .text.HAL_MspInit:0000000000000000 $t
     /tmp/ccKUZGIy.s:23     .text.HAL_MspInit:0000000000000000 HAL_MspInit
     /tmp/ccKUZGIy.s:72     .text.HAL_MspInit:000000000000003c $d
                     .debug_frame:0000000000000010 $d

UNDEFINED SYMBOLS
HAL_NVIC_SetPriority
